GAS LISTING /tmp/cczdvVIN.s 			page 1


   1              		.file	"array.cpp"
   2              		.text
   3              	.Ltext0:
   4              		.section	.text._ZNSt6vectorIiSaIiEE19_M_emplace_back_auxIIRKiEEEvDpOT_,"axG",@progbits,_ZNSt6vecto
   5              		.align 2
   6              		.p2align 4,,15
   7              		.weak	_ZNSt6vectorIiSaIiEE19_M_emplace_back_auxIIRKiEEEvDpOT_
   8              		.type	_ZNSt6vectorIiSaIiEE19_M_emplace_back_auxIIRKiEEEvDpOT_, @function
   9              	_ZNSt6vectorIiSaIiEE19_M_emplace_back_auxIIRKiEEEvDpOT_:
  10              	.LFB1704:
  11              		.file 1 "/usr/include/c++/4.8/bits/vector.tcc"
   1:/usr/include/c++/4.8/bits/vector.tcc **** // Vector implementation (out of line) -*- C++ -*-
   2:/usr/include/c++/4.8/bits/vector.tcc **** 
   3:/usr/include/c++/4.8/bits/vector.tcc **** // Copyright (C) 2001-2013 Free Software Foundation, Inc.
   4:/usr/include/c++/4.8/bits/vector.tcc **** //
   5:/usr/include/c++/4.8/bits/vector.tcc **** // This file is part of the GNU ISO C++ Library.  This library is free
   6:/usr/include/c++/4.8/bits/vector.tcc **** // software; you can redistribute it and/or modify it under the
   7:/usr/include/c++/4.8/bits/vector.tcc **** // terms of the GNU General Public License as published by the
   8:/usr/include/c++/4.8/bits/vector.tcc **** // Free Software Foundation; either version 3, or (at your option)
   9:/usr/include/c++/4.8/bits/vector.tcc **** // any later version.
  10:/usr/include/c++/4.8/bits/vector.tcc **** 
  11:/usr/include/c++/4.8/bits/vector.tcc **** // This library is distributed in the hope that it will be useful,
  12:/usr/include/c++/4.8/bits/vector.tcc **** // but WITHOUT ANY WARRANTY; without even the implied warranty of
  13:/usr/include/c++/4.8/bits/vector.tcc **** // MERCHANTABILITY or FITNESS FOR A PARTICULAR PURPOSE.  See the
  14:/usr/include/c++/4.8/bits/vector.tcc **** // GNU General Public License for more details.
  15:/usr/include/c++/4.8/bits/vector.tcc **** 
  16:/usr/include/c++/4.8/bits/vector.tcc **** // Under Section 7 of GPL version 3, you are granted additional
  17:/usr/include/c++/4.8/bits/vector.tcc **** // permissions described in the GCC Runtime Library Exception, version
  18:/usr/include/c++/4.8/bits/vector.tcc **** // 3.1, as published by the Free Software Foundation.
  19:/usr/include/c++/4.8/bits/vector.tcc **** 
  20:/usr/include/c++/4.8/bits/vector.tcc **** // You should have received a copy of the GNU General Public License and
  21:/usr/include/c++/4.8/bits/vector.tcc **** // a copy of the GCC Runtime Library Exception along with this program;
  22:/usr/include/c++/4.8/bits/vector.tcc **** // see the files COPYING3 and COPYING.RUNTIME respectively.  If not, see
  23:/usr/include/c++/4.8/bits/vector.tcc **** // <http://www.gnu.org/licenses/>.
  24:/usr/include/c++/4.8/bits/vector.tcc **** 
  25:/usr/include/c++/4.8/bits/vector.tcc **** /*
  26:/usr/include/c++/4.8/bits/vector.tcc ****  *
  27:/usr/include/c++/4.8/bits/vector.tcc ****  * Copyright (c) 1994
  28:/usr/include/c++/4.8/bits/vector.tcc ****  * Hewlett-Packard Company
  29:/usr/include/c++/4.8/bits/vector.tcc ****  *
  30:/usr/include/c++/4.8/bits/vector.tcc ****  * Permission to use, copy, modify, distribute and sell this software
  31:/usr/include/c++/4.8/bits/vector.tcc ****  * and its documentation for any purpose is hereby granted without fee,
  32:/usr/include/c++/4.8/bits/vector.tcc ****  * provided that the above copyright notice appear in all copies and
  33:/usr/include/c++/4.8/bits/vector.tcc ****  * that both that copyright notice and this permission notice appear
  34:/usr/include/c++/4.8/bits/vector.tcc ****  * in supporting documentation.  Hewlett-Packard Company makes no
  35:/usr/include/c++/4.8/bits/vector.tcc ****  * representations about the suitability of this software for any
  36:/usr/include/c++/4.8/bits/vector.tcc ****  * purpose.  It is provided "as is" without express or implied warranty.
  37:/usr/include/c++/4.8/bits/vector.tcc ****  *
  38:/usr/include/c++/4.8/bits/vector.tcc ****  *
  39:/usr/include/c++/4.8/bits/vector.tcc ****  * Copyright (c) 1996
  40:/usr/include/c++/4.8/bits/vector.tcc ****  * Silicon Graphics Computer Systems, Inc.
  41:/usr/include/c++/4.8/bits/vector.tcc ****  *
  42:/usr/include/c++/4.8/bits/vector.tcc ****  * Permission to use, copy, modify, distribute and sell this software
  43:/usr/include/c++/4.8/bits/vector.tcc ****  * and its documentation for any purpose is hereby granted without fee,
  44:/usr/include/c++/4.8/bits/vector.tcc ****  * provided that the above copyright notice appear in all copies and
  45:/usr/include/c++/4.8/bits/vector.tcc ****  * that both that copyright notice and this permission notice appear
  46:/usr/include/c++/4.8/bits/vector.tcc ****  * in supporting documentation.  Silicon Graphics makes no
GAS LISTING /tmp/cczdvVIN.s 			page 2


  47:/usr/include/c++/4.8/bits/vector.tcc ****  * representations about the suitability of this  software for any
  48:/usr/include/c++/4.8/bits/vector.tcc ****  * purpose.  It is provided "as is" without express or implied warranty.
  49:/usr/include/c++/4.8/bits/vector.tcc ****  */
  50:/usr/include/c++/4.8/bits/vector.tcc **** 
  51:/usr/include/c++/4.8/bits/vector.tcc **** /** @file bits/vector.tcc
  52:/usr/include/c++/4.8/bits/vector.tcc ****  *  This is an internal header file, included by other library headers.
  53:/usr/include/c++/4.8/bits/vector.tcc ****  *  Do not attempt to use it directly. @headername{vector}
  54:/usr/include/c++/4.8/bits/vector.tcc ****  */
  55:/usr/include/c++/4.8/bits/vector.tcc **** 
  56:/usr/include/c++/4.8/bits/vector.tcc **** #ifndef _VECTOR_TCC
  57:/usr/include/c++/4.8/bits/vector.tcc **** #define _VECTOR_TCC 1
  58:/usr/include/c++/4.8/bits/vector.tcc **** 
  59:/usr/include/c++/4.8/bits/vector.tcc **** namespace std _GLIBCXX_VISIBILITY(default)
  60:/usr/include/c++/4.8/bits/vector.tcc **** {
  61:/usr/include/c++/4.8/bits/vector.tcc **** _GLIBCXX_BEGIN_NAMESPACE_CONTAINER
  62:/usr/include/c++/4.8/bits/vector.tcc **** 
  63:/usr/include/c++/4.8/bits/vector.tcc ****   template<typename _Tp, typename _Alloc>
  64:/usr/include/c++/4.8/bits/vector.tcc ****     void
  65:/usr/include/c++/4.8/bits/vector.tcc ****     vector<_Tp, _Alloc>::
  66:/usr/include/c++/4.8/bits/vector.tcc ****     reserve(size_type __n)
  67:/usr/include/c++/4.8/bits/vector.tcc ****     {
  68:/usr/include/c++/4.8/bits/vector.tcc ****       if (__n > this->max_size())
  69:/usr/include/c++/4.8/bits/vector.tcc **** 	__throw_length_error(__N("vector::reserve"));
  70:/usr/include/c++/4.8/bits/vector.tcc ****       if (this->capacity() < __n)
  71:/usr/include/c++/4.8/bits/vector.tcc **** 	{
  72:/usr/include/c++/4.8/bits/vector.tcc **** 	  const size_type __old_size = size();
  73:/usr/include/c++/4.8/bits/vector.tcc **** 	  pointer __tmp = _M_allocate_and_copy(__n,
  74:/usr/include/c++/4.8/bits/vector.tcc **** 	    _GLIBCXX_MAKE_MOVE_IF_NOEXCEPT_ITERATOR(this->_M_impl._M_start),
  75:/usr/include/c++/4.8/bits/vector.tcc **** 	    _GLIBCXX_MAKE_MOVE_IF_NOEXCEPT_ITERATOR(this->_M_impl._M_finish));
  76:/usr/include/c++/4.8/bits/vector.tcc **** 	  std::_Destroy(this->_M_impl._M_start, this->_M_impl._M_finish,
  77:/usr/include/c++/4.8/bits/vector.tcc **** 			_M_get_Tp_allocator());
  78:/usr/include/c++/4.8/bits/vector.tcc **** 	  _M_deallocate(this->_M_impl._M_start,
  79:/usr/include/c++/4.8/bits/vector.tcc **** 			this->_M_impl._M_end_of_storage
  80:/usr/include/c++/4.8/bits/vector.tcc **** 			- this->_M_impl._M_start);
  81:/usr/include/c++/4.8/bits/vector.tcc **** 	  this->_M_impl._M_start = __tmp;
  82:/usr/include/c++/4.8/bits/vector.tcc **** 	  this->_M_impl._M_finish = __tmp + __old_size;
  83:/usr/include/c++/4.8/bits/vector.tcc **** 	  this->_M_impl._M_end_of_storage = this->_M_impl._M_start + __n;
  84:/usr/include/c++/4.8/bits/vector.tcc **** 	}
  85:/usr/include/c++/4.8/bits/vector.tcc ****     }
  86:/usr/include/c++/4.8/bits/vector.tcc **** 
  87:/usr/include/c++/4.8/bits/vector.tcc **** #if __cplusplus >= 201103L
  88:/usr/include/c++/4.8/bits/vector.tcc ****   template<typename _Tp, typename _Alloc>
  89:/usr/include/c++/4.8/bits/vector.tcc ****     template<typename... _Args>
  90:/usr/include/c++/4.8/bits/vector.tcc ****       void
  91:/usr/include/c++/4.8/bits/vector.tcc ****       vector<_Tp, _Alloc>::
  92:/usr/include/c++/4.8/bits/vector.tcc ****       emplace_back(_Args&&... __args)
  93:/usr/include/c++/4.8/bits/vector.tcc ****       {
  94:/usr/include/c++/4.8/bits/vector.tcc **** 	if (this->_M_impl._M_finish != this->_M_impl._M_end_of_storage)
  95:/usr/include/c++/4.8/bits/vector.tcc **** 	  {
  96:/usr/include/c++/4.8/bits/vector.tcc **** 	    _Alloc_traits::construct(this->_M_impl, this->_M_impl._M_finish,
  97:/usr/include/c++/4.8/bits/vector.tcc **** 				     std::forward<_Args>(__args)...);
  98:/usr/include/c++/4.8/bits/vector.tcc **** 	    ++this->_M_impl._M_finish;
  99:/usr/include/c++/4.8/bits/vector.tcc **** 	  }
 100:/usr/include/c++/4.8/bits/vector.tcc **** 	else
 101:/usr/include/c++/4.8/bits/vector.tcc **** 	  _M_emplace_back_aux(std::forward<_Args>(__args)...);
 102:/usr/include/c++/4.8/bits/vector.tcc ****       }
 103:/usr/include/c++/4.8/bits/vector.tcc **** #endif
 104:/usr/include/c++/4.8/bits/vector.tcc **** 
 105:/usr/include/c++/4.8/bits/vector.tcc ****   template<typename _Tp, typename _Alloc>
 106:/usr/include/c++/4.8/bits/vector.tcc ****     typename vector<_Tp, _Alloc>::iterator
 107:/usr/include/c++/4.8/bits/vector.tcc ****     vector<_Tp, _Alloc>::
 108:/usr/include/c++/4.8/bits/vector.tcc ****     insert(iterator __position, const value_type& __x)
 109:/usr/include/c++/4.8/bits/vector.tcc ****     {
 110:/usr/include/c++/4.8/bits/vector.tcc ****       const size_type __n = __position - begin();
 111:/usr/include/c++/4.8/bits/vector.tcc ****       if (this->_M_impl._M_finish != this->_M_impl._M_end_of_storage
 112:/usr/include/c++/4.8/bits/vector.tcc **** 	  && __position == end())
 113:/usr/include/c++/4.8/bits/vector.tcc **** 	{
 114:/usr/include/c++/4.8/bits/vector.tcc **** 	  _Alloc_traits::construct(this->_M_impl, this->_M_impl._M_finish, __x);
 115:/usr/include/c++/4.8/bits/vector.tcc **** 	  ++this->_M_impl._M_finish;
 116:/usr/include/c++/4.8/bits/vector.tcc **** 	}
 117:/usr/include/c++/4.8/bits/vector.tcc ****       else
 118:/usr/include/c++/4.8/bits/vector.tcc **** 	{
 119:/usr/include/c++/4.8/bits/vector.tcc **** #if __cplusplus >= 201103L
 120:/usr/include/c++/4.8/bits/vector.tcc **** 	  if (this->_M_impl._M_finish != this->_M_impl._M_end_of_storage)
 121:/usr/include/c++/4.8/bits/vector.tcc **** 	    {
 122:/usr/include/c++/4.8/bits/vector.tcc **** 	      _Tp __x_copy = __x;
 123:/usr/include/c++/4.8/bits/vector.tcc **** 	      _M_insert_aux(__position, std::move(__x_copy));
 124:/usr/include/c++/4.8/bits/vector.tcc **** 	    }
 125:/usr/include/c++/4.8/bits/vector.tcc **** 	  else
 126:/usr/include/c++/4.8/bits/vector.tcc **** #endif
 127:/usr/include/c++/4.8/bits/vector.tcc **** 	    _M_insert_aux(__position, __x);
 128:/usr/include/c++/4.8/bits/vector.tcc **** 	}
 129:/usr/include/c++/4.8/bits/vector.tcc ****       return iterator(this->_M_impl._M_start + __n);
 130:/usr/include/c++/4.8/bits/vector.tcc ****     }
 131:/usr/include/c++/4.8/bits/vector.tcc **** 
 132:/usr/include/c++/4.8/bits/vector.tcc ****   template<typename _Tp, typename _Alloc>
 133:/usr/include/c++/4.8/bits/vector.tcc ****     typename vector<_Tp, _Alloc>::iterator
 134:/usr/include/c++/4.8/bits/vector.tcc ****     vector<_Tp, _Alloc>::
 135:/usr/include/c++/4.8/bits/vector.tcc ****     erase(iterator __position)
 136:/usr/include/c++/4.8/bits/vector.tcc ****     {
 137:/usr/include/c++/4.8/bits/vector.tcc ****       if (__position + 1 != end())
 138:/usr/include/c++/4.8/bits/vector.tcc **** 	_GLIBCXX_MOVE3(__position + 1, end(), __position);
 139:/usr/include/c++/4.8/bits/vector.tcc ****       --this->_M_impl._M_finish;
 140:/usr/include/c++/4.8/bits/vector.tcc ****       _Alloc_traits::destroy(this->_M_impl, this->_M_impl._M_finish);
 141:/usr/include/c++/4.8/bits/vector.tcc ****       return __position;
 142:/usr/include/c++/4.8/bits/vector.tcc ****     }
 143:/usr/include/c++/4.8/bits/vector.tcc **** 
 144:/usr/include/c++/4.8/bits/vector.tcc ****   template<typename _Tp, typename _Alloc>
 145:/usr/include/c++/4.8/bits/vector.tcc ****     typename vector<_Tp, _Alloc>::iterator
 146:/usr/include/c++/4.8/bits/vector.tcc ****     vector<_Tp, _Alloc>::
 147:/usr/include/c++/4.8/bits/vector.tcc ****     erase(iterator __first, iterator __last)
 148:/usr/include/c++/4.8/bits/vector.tcc ****     {
 149:/usr/include/c++/4.8/bits/vector.tcc ****       if (__first != __last)
 150:/usr/include/c++/4.8/bits/vector.tcc **** 	{
 151:/usr/include/c++/4.8/bits/vector.tcc **** 	  if (__last != end())
 152:/usr/include/c++/4.8/bits/vector.tcc **** 	    _GLIBCXX_MOVE3(__last, end(), __first);
 153:/usr/include/c++/4.8/bits/vector.tcc **** 	  _M_erase_at_end(__first.base() + (end() - __last));
 154:/usr/include/c++/4.8/bits/vector.tcc **** 	}
 155:/usr/include/c++/4.8/bits/vector.tcc ****       return __first;
 156:/usr/include/c++/4.8/bits/vector.tcc ****     }
 157:/usr/include/c++/4.8/bits/vector.tcc **** 
 158:/usr/include/c++/4.8/bits/vector.tcc ****   template<typename _Tp, typename _Alloc>
 159:/usr/include/c++/4.8/bits/vector.tcc ****     vector<_Tp, _Alloc>&
 160:/usr/include/c++/4.8/bits/vector.tcc ****     vector<_Tp, _Alloc>::
 161:/usr/include/c++/4.8/bits/vector.tcc ****     operator=(const vector<_Tp, _Alloc>& __x)
 162:/usr/include/c++/4.8/bits/vector.tcc ****     {
 163:/usr/include/c++/4.8/bits/vector.tcc ****       if (&__x != this)
 164:/usr/include/c++/4.8/bits/vector.tcc **** 	{
 165:/usr/include/c++/4.8/bits/vector.tcc **** #if __cplusplus >= 201103L
 166:/usr/include/c++/4.8/bits/vector.tcc **** 	  if (_Alloc_traits::_S_propagate_on_copy_assign())
 167:/usr/include/c++/4.8/bits/vector.tcc **** 	    {
 168:/usr/include/c++/4.8/bits/vector.tcc **** 	      if (!_Alloc_traits::_S_always_equal()
 169:/usr/include/c++/4.8/bits/vector.tcc **** 	          && _M_get_Tp_allocator() != __x._M_get_Tp_allocator())
 170:/usr/include/c++/4.8/bits/vector.tcc **** 	        {
 171:/usr/include/c++/4.8/bits/vector.tcc **** 		  // replacement allocator cannot free existing storage
 172:/usr/include/c++/4.8/bits/vector.tcc **** 		  this->clear();
 173:/usr/include/c++/4.8/bits/vector.tcc **** 		  _M_deallocate(this->_M_impl._M_start,
 174:/usr/include/c++/4.8/bits/vector.tcc **** 				this->_M_impl._M_end_of_storage
 175:/usr/include/c++/4.8/bits/vector.tcc **** 				- this->_M_impl._M_start);
 176:/usr/include/c++/4.8/bits/vector.tcc **** 		  this->_M_impl._M_start = nullptr;
 177:/usr/include/c++/4.8/bits/vector.tcc **** 		  this->_M_impl._M_finish = nullptr;
 178:/usr/include/c++/4.8/bits/vector.tcc **** 		  this->_M_impl._M_end_of_storage = nullptr;
 179:/usr/include/c++/4.8/bits/vector.tcc **** 		}
 180:/usr/include/c++/4.8/bits/vector.tcc **** 	      std::__alloc_on_copy(_M_get_Tp_allocator(),
 181:/usr/include/c++/4.8/bits/vector.tcc **** 				   __x._M_get_Tp_allocator());
 182:/usr/include/c++/4.8/bits/vector.tcc **** 	    }
 183:/usr/include/c++/4.8/bits/vector.tcc **** #endif
 184:/usr/include/c++/4.8/bits/vector.tcc **** 	  const size_type __xlen = __x.size();
 185:/usr/include/c++/4.8/bits/vector.tcc **** 	  if (__xlen > capacity())
 186:/usr/include/c++/4.8/bits/vector.tcc **** 	    {
 187:/usr/include/c++/4.8/bits/vector.tcc **** 	      pointer __tmp = _M_allocate_and_copy(__xlen, __x.begin(),
 188:/usr/include/c++/4.8/bits/vector.tcc **** 						   __x.end());
 189:/usr/include/c++/4.8/bits/vector.tcc **** 	      std::_Destroy(this->_M_impl._M_start, this->_M_impl._M_finish,
 190:/usr/include/c++/4.8/bits/vector.tcc **** 			    _M_get_Tp_allocator());
 191:/usr/include/c++/4.8/bits/vector.tcc **** 	      _M_deallocate(this->_M_impl._M_start,
 192:/usr/include/c++/4.8/bits/vector.tcc **** 			    this->_M_impl._M_end_of_storage
 193:/usr/include/c++/4.8/bits/vector.tcc **** 			    - this->_M_impl._M_start);
 194:/usr/include/c++/4.8/bits/vector.tcc **** 	      this->_M_impl._M_start = __tmp;
 195:/usr/include/c++/4.8/bits/vector.tcc **** 	      this->_M_impl._M_end_of_storage = this->_M_impl._M_start + __xlen;
 196:/usr/include/c++/4.8/bits/vector.tcc **** 	    }
 197:/usr/include/c++/4.8/bits/vector.tcc **** 	  else if (size() >= __xlen)
 198:/usr/include/c++/4.8/bits/vector.tcc **** 	    {
 199:/usr/include/c++/4.8/bits/vector.tcc **** 	      std::_Destroy(std::copy(__x.begin(), __x.end(), begin()),
 200:/usr/include/c++/4.8/bits/vector.tcc **** 			    end(), _M_get_Tp_allocator());
 201:/usr/include/c++/4.8/bits/vector.tcc **** 	    }
 202:/usr/include/c++/4.8/bits/vector.tcc **** 	  else
 203:/usr/include/c++/4.8/bits/vector.tcc **** 	    {
 204:/usr/include/c++/4.8/bits/vector.tcc **** 	      std::copy(__x._M_impl._M_start, __x._M_impl._M_start + size(),
 205:/usr/include/c++/4.8/bits/vector.tcc **** 			this->_M_impl._M_start);
 206:/usr/include/c++/4.8/bits/vector.tcc **** 	      std::__uninitialized_copy_a(__x._M_impl._M_start + size(),
 207:/usr/include/c++/4.8/bits/vector.tcc **** 					  __x._M_impl._M_finish,
 208:/usr/include/c++/4.8/bits/vector.tcc **** 					  this->_M_impl._M_finish,
 209:/usr/include/c++/4.8/bits/vector.tcc **** 					  _M_get_Tp_allocator());
 210:/usr/include/c++/4.8/bits/vector.tcc **** 	    }
 211:/usr/include/c++/4.8/bits/vector.tcc **** 	  this->_M_impl._M_finish = this->_M_impl._M_start + __xlen;
 212:/usr/include/c++/4.8/bits/vector.tcc **** 	}
 213:/usr/include/c++/4.8/bits/vector.tcc ****       return *this;
 214:/usr/include/c++/4.8/bits/vector.tcc ****     }
 215:/usr/include/c++/4.8/bits/vector.tcc **** 
 216:/usr/include/c++/4.8/bits/vector.tcc ****   template<typename _Tp, typename _Alloc>
 217:/usr/include/c++/4.8/bits/vector.tcc ****     void
 218:/usr/include/c++/4.8/bits/vector.tcc ****     vector<_Tp, _Alloc>::
 219:/usr/include/c++/4.8/bits/vector.tcc ****     _M_fill_assign(size_t __n, const value_type& __val)
 220:/usr/include/c++/4.8/bits/vector.tcc ****     {
 221:/usr/include/c++/4.8/bits/vector.tcc ****       if (__n > capacity())
 222:/usr/include/c++/4.8/bits/vector.tcc **** 	{
 223:/usr/include/c++/4.8/bits/vector.tcc **** 	  vector __tmp(__n, __val, _M_get_Tp_allocator());
 224:/usr/include/c++/4.8/bits/vector.tcc **** 	  __tmp.swap(*this);
 225:/usr/include/c++/4.8/bits/vector.tcc **** 	}
 226:/usr/include/c++/4.8/bits/vector.tcc ****       else if (__n > size())
 227:/usr/include/c++/4.8/bits/vector.tcc **** 	{
 228:/usr/include/c++/4.8/bits/vector.tcc **** 	  std::fill(begin(), end(), __val);
 229:/usr/include/c++/4.8/bits/vector.tcc **** 	  std::__uninitialized_fill_n_a(this->_M_impl._M_finish,
 230:/usr/include/c++/4.8/bits/vector.tcc **** 					__n - size(), __val,
 231:/usr/include/c++/4.8/bits/vector.tcc **** 					_M_get_Tp_allocator());
 232:/usr/include/c++/4.8/bits/vector.tcc **** 	  this->_M_impl._M_finish += __n - size();
 233:/usr/include/c++/4.8/bits/vector.tcc **** 	}
 234:/usr/include/c++/4.8/bits/vector.tcc ****       else
 235:/usr/include/c++/4.8/bits/vector.tcc ****         _M_erase_at_end(std::fill_n(this->_M_impl._M_start, __n, __val));
 236:/usr/include/c++/4.8/bits/vector.tcc ****     }
 237:/usr/include/c++/4.8/bits/vector.tcc **** 
 238:/usr/include/c++/4.8/bits/vector.tcc ****   template<typename _Tp, typename _Alloc>
 239:/usr/include/c++/4.8/bits/vector.tcc ****     template<typename _InputIterator>
 240:/usr/include/c++/4.8/bits/vector.tcc ****       void
 241:/usr/include/c++/4.8/bits/vector.tcc ****       vector<_Tp, _Alloc>::
 242:/usr/include/c++/4.8/bits/vector.tcc ****       _M_assign_aux(_InputIterator __first, _InputIterator __last,
 243:/usr/include/c++/4.8/bits/vector.tcc **** 		    std::input_iterator_tag)
 244:/usr/include/c++/4.8/bits/vector.tcc ****       {
 245:/usr/include/c++/4.8/bits/vector.tcc **** 	pointer __cur(this->_M_impl._M_start);
 246:/usr/include/c++/4.8/bits/vector.tcc **** 	for (; __first != __last && __cur != this->_M_impl._M_finish;
 247:/usr/include/c++/4.8/bits/vector.tcc **** 	     ++__cur, ++__first)
 248:/usr/include/c++/4.8/bits/vector.tcc **** 	  *__cur = *__first;
 249:/usr/include/c++/4.8/bits/vector.tcc **** 	if (__first == __last)
 250:/usr/include/c++/4.8/bits/vector.tcc **** 	  _M_erase_at_end(__cur);
 251:/usr/include/c++/4.8/bits/vector.tcc **** 	else
 252:/usr/include/c++/4.8/bits/vector.tcc **** 	  insert(end(), __first, __last);
 253:/usr/include/c++/4.8/bits/vector.tcc ****       }
 254:/usr/include/c++/4.8/bits/vector.tcc **** 
 255:/usr/include/c++/4.8/bits/vector.tcc ****   template<typename _Tp, typename _Alloc>
 256:/usr/include/c++/4.8/bits/vector.tcc ****     template<typename _ForwardIterator>
 257:/usr/include/c++/4.8/bits/vector.tcc ****       void
 258:/usr/include/c++/4.8/bits/vector.tcc ****       vector<_Tp, _Alloc>::
 259:/usr/include/c++/4.8/bits/vector.tcc ****       _M_assign_aux(_ForwardIterator __first, _ForwardIterator __last,
 260:/usr/include/c++/4.8/bits/vector.tcc **** 		    std::forward_iterator_tag)
 261:/usr/include/c++/4.8/bits/vector.tcc ****       {
 262:/usr/include/c++/4.8/bits/vector.tcc **** 	const size_type __len = std::distance(__first, __last);
 263:/usr/include/c++/4.8/bits/vector.tcc **** 
 264:/usr/include/c++/4.8/bits/vector.tcc **** 	if (__len > capacity())
 265:/usr/include/c++/4.8/bits/vector.tcc **** 	  {
 266:/usr/include/c++/4.8/bits/vector.tcc **** 	    pointer __tmp(_M_allocate_and_copy(__len, __first, __last));
 267:/usr/include/c++/4.8/bits/vector.tcc **** 	    std::_Destroy(this->_M_impl._M_start, this->_M_impl._M_finish,
 268:/usr/include/c++/4.8/bits/vector.tcc **** 			  _M_get_Tp_allocator());
 269:/usr/include/c++/4.8/bits/vector.tcc **** 	    _M_deallocate(this->_M_impl._M_start,
 270:/usr/include/c++/4.8/bits/vector.tcc **** 			  this->_M_impl._M_end_of_storage
 271:/usr/include/c++/4.8/bits/vector.tcc **** 			  - this->_M_impl._M_start);
 272:/usr/include/c++/4.8/bits/vector.tcc **** 	    this->_M_impl._M_start = __tmp;
 273:/usr/include/c++/4.8/bits/vector.tcc **** 	    this->_M_impl._M_finish = this->_M_impl._M_start + __len;
 274:/usr/include/c++/4.8/bits/vector.tcc **** 	    this->_M_impl._M_end_of_storage = this->_M_impl._M_finish;
 275:/usr/include/c++/4.8/bits/vector.tcc **** 	  }
 276:/usr/include/c++/4.8/bits/vector.tcc **** 	else if (size() >= __len)
 277:/usr/include/c++/4.8/bits/vector.tcc **** 	  _M_erase_at_end(std::copy(__first, __last, this->_M_impl._M_start));
 278:/usr/include/c++/4.8/bits/vector.tcc **** 	else
 279:/usr/include/c++/4.8/bits/vector.tcc **** 	  {
 280:/usr/include/c++/4.8/bits/vector.tcc **** 	    _ForwardIterator __mid = __first;
 281:/usr/include/c++/4.8/bits/vector.tcc **** 	    std::advance(__mid, size());
 282:/usr/include/c++/4.8/bits/vector.tcc **** 	    std::copy(__first, __mid, this->_M_impl._M_start);
 283:/usr/include/c++/4.8/bits/vector.tcc **** 	    this->_M_impl._M_finish =
 284:/usr/include/c++/4.8/bits/vector.tcc **** 	      std::__uninitialized_copy_a(__mid, __last,
 285:/usr/include/c++/4.8/bits/vector.tcc **** 					  this->_M_impl._M_finish,
 286:/usr/include/c++/4.8/bits/vector.tcc **** 					  _M_get_Tp_allocator());
 287:/usr/include/c++/4.8/bits/vector.tcc **** 	  }
 288:/usr/include/c++/4.8/bits/vector.tcc ****       }
 289:/usr/include/c++/4.8/bits/vector.tcc **** 
 290:/usr/include/c++/4.8/bits/vector.tcc **** #if __cplusplus >= 201103L
 291:/usr/include/c++/4.8/bits/vector.tcc ****   template<typename _Tp, typename _Alloc>
 292:/usr/include/c++/4.8/bits/vector.tcc ****     template<typename... _Args>
 293:/usr/include/c++/4.8/bits/vector.tcc ****       typename vector<_Tp, _Alloc>::iterator
 294:/usr/include/c++/4.8/bits/vector.tcc ****       vector<_Tp, _Alloc>::
 295:/usr/include/c++/4.8/bits/vector.tcc ****       emplace(iterator __position, _Args&&... __args)
 296:/usr/include/c++/4.8/bits/vector.tcc ****       {
 297:/usr/include/c++/4.8/bits/vector.tcc **** 	const size_type __n = __position - begin();
 298:/usr/include/c++/4.8/bits/vector.tcc **** 	if (this->_M_impl._M_finish != this->_M_impl._M_end_of_storage
 299:/usr/include/c++/4.8/bits/vector.tcc **** 	    && __position == end())
 300:/usr/include/c++/4.8/bits/vector.tcc **** 	  {
 301:/usr/include/c++/4.8/bits/vector.tcc **** 	    _Alloc_traits::construct(this->_M_impl, this->_M_impl._M_finish,
 302:/usr/include/c++/4.8/bits/vector.tcc **** 				     std::forward<_Args>(__args)...);
 303:/usr/include/c++/4.8/bits/vector.tcc **** 	    ++this->_M_impl._M_finish;
 304:/usr/include/c++/4.8/bits/vector.tcc **** 	  }
 305:/usr/include/c++/4.8/bits/vector.tcc **** 	else
 306:/usr/include/c++/4.8/bits/vector.tcc **** 	  _M_insert_aux(__position, std::forward<_Args>(__args)...);
 307:/usr/include/c++/4.8/bits/vector.tcc **** 	return iterator(this->_M_impl._M_start + __n);
 308:/usr/include/c++/4.8/bits/vector.tcc ****       }
 309:/usr/include/c++/4.8/bits/vector.tcc **** 
 310:/usr/include/c++/4.8/bits/vector.tcc ****   template<typename _Tp, typename _Alloc>
 311:/usr/include/c++/4.8/bits/vector.tcc ****     template<typename... _Args>
 312:/usr/include/c++/4.8/bits/vector.tcc ****       void
 313:/usr/include/c++/4.8/bits/vector.tcc ****       vector<_Tp, _Alloc>::
 314:/usr/include/c++/4.8/bits/vector.tcc ****       _M_insert_aux(iterator __position, _Args&&... __args)
 315:/usr/include/c++/4.8/bits/vector.tcc **** #else
 316:/usr/include/c++/4.8/bits/vector.tcc ****   template<typename _Tp, typename _Alloc>
 317:/usr/include/c++/4.8/bits/vector.tcc ****     void
 318:/usr/include/c++/4.8/bits/vector.tcc ****     vector<_Tp, _Alloc>::
 319:/usr/include/c++/4.8/bits/vector.tcc ****     _M_insert_aux(iterator __position, const _Tp& __x)
 320:/usr/include/c++/4.8/bits/vector.tcc **** #endif
 321:/usr/include/c++/4.8/bits/vector.tcc ****     {
 322:/usr/include/c++/4.8/bits/vector.tcc ****       if (this->_M_impl._M_finish != this->_M_impl._M_end_of_storage)
 323:/usr/include/c++/4.8/bits/vector.tcc **** 	{
 324:/usr/include/c++/4.8/bits/vector.tcc **** 	  _Alloc_traits::construct(this->_M_impl, this->_M_impl._M_finish,
 325:/usr/include/c++/4.8/bits/vector.tcc **** 			           _GLIBCXX_MOVE(*(this->_M_impl._M_finish
 326:/usr/include/c++/4.8/bits/vector.tcc **** 				                   - 1)));
 327:/usr/include/c++/4.8/bits/vector.tcc **** 	  ++this->_M_impl._M_finish;
 328:/usr/include/c++/4.8/bits/vector.tcc **** #if __cplusplus < 201103L
 329:/usr/include/c++/4.8/bits/vector.tcc **** 	  _Tp __x_copy = __x;
 330:/usr/include/c++/4.8/bits/vector.tcc **** #endif
 331:/usr/include/c++/4.8/bits/vector.tcc **** 	  _GLIBCXX_MOVE_BACKWARD3(__position.base(),
 332:/usr/include/c++/4.8/bits/vector.tcc **** 				  this->_M_impl._M_finish - 2,
 333:/usr/include/c++/4.8/bits/vector.tcc **** 				  this->_M_impl._M_finish - 1);
 334:/usr/include/c++/4.8/bits/vector.tcc **** #if __cplusplus < 201103L
 335:/usr/include/c++/4.8/bits/vector.tcc **** 	  *__position = __x_copy;
 336:/usr/include/c++/4.8/bits/vector.tcc **** #else
 337:/usr/include/c++/4.8/bits/vector.tcc **** 	  *__position = _Tp(std::forward<_Args>(__args)...);
 338:/usr/include/c++/4.8/bits/vector.tcc **** #endif
 339:/usr/include/c++/4.8/bits/vector.tcc **** 	}
 340:/usr/include/c++/4.8/bits/vector.tcc ****       else
 341:/usr/include/c++/4.8/bits/vector.tcc **** 	{
 342:/usr/include/c++/4.8/bits/vector.tcc **** 	  const size_type __len =
 343:/usr/include/c++/4.8/bits/vector.tcc **** 	    _M_check_len(size_type(1), "vector::_M_insert_aux");
 344:/usr/include/c++/4.8/bits/vector.tcc **** 	  const size_type __elems_before = __position - begin();
 345:/usr/include/c++/4.8/bits/vector.tcc **** 	  pointer __new_start(this->_M_allocate(__len));
 346:/usr/include/c++/4.8/bits/vector.tcc **** 	  pointer __new_finish(__new_start);
 347:/usr/include/c++/4.8/bits/vector.tcc **** 	  __try
 348:/usr/include/c++/4.8/bits/vector.tcc **** 	    {
 349:/usr/include/c++/4.8/bits/vector.tcc **** 	      // The order of the three operations is dictated by the C++0x
 350:/usr/include/c++/4.8/bits/vector.tcc **** 	      // case, where the moves could alter a new element belonging
 351:/usr/include/c++/4.8/bits/vector.tcc **** 	      // to the existing vector.  This is an issue only for callers
 352:/usr/include/c++/4.8/bits/vector.tcc **** 	      // taking the element by const lvalue ref (see 23.1/13).
 353:/usr/include/c++/4.8/bits/vector.tcc **** 	      _Alloc_traits::construct(this->_M_impl,
 354:/usr/include/c++/4.8/bits/vector.tcc **** 		                       __new_start + __elems_before,
 355:/usr/include/c++/4.8/bits/vector.tcc **** #if __cplusplus >= 201103L
 356:/usr/include/c++/4.8/bits/vector.tcc **** 				       std::forward<_Args>(__args)...);
 357:/usr/include/c++/4.8/bits/vector.tcc **** #else
 358:/usr/include/c++/4.8/bits/vector.tcc **** 	                               __x);
 359:/usr/include/c++/4.8/bits/vector.tcc **** #endif
 360:/usr/include/c++/4.8/bits/vector.tcc **** 	      __new_finish = 0;
 361:/usr/include/c++/4.8/bits/vector.tcc **** 
 362:/usr/include/c++/4.8/bits/vector.tcc **** 	      __new_finish
 363:/usr/include/c++/4.8/bits/vector.tcc **** 		= std::__uninitialized_move_if_noexcept_a
 364:/usr/include/c++/4.8/bits/vector.tcc **** 		(this->_M_impl._M_start, __position.base(),
 365:/usr/include/c++/4.8/bits/vector.tcc **** 		 __new_start, _M_get_Tp_allocator());
 366:/usr/include/c++/4.8/bits/vector.tcc **** 
 367:/usr/include/c++/4.8/bits/vector.tcc **** 	      ++__new_finish;
 368:/usr/include/c++/4.8/bits/vector.tcc **** 
 369:/usr/include/c++/4.8/bits/vector.tcc **** 	      __new_finish
 370:/usr/include/c++/4.8/bits/vector.tcc **** 		= std::__uninitialized_move_if_noexcept_a
 371:/usr/include/c++/4.8/bits/vector.tcc **** 		(__position.base(), this->_M_impl._M_finish,
 372:/usr/include/c++/4.8/bits/vector.tcc **** 		 __new_finish, _M_get_Tp_allocator());
 373:/usr/include/c++/4.8/bits/vector.tcc **** 	    }
 374:/usr/include/c++/4.8/bits/vector.tcc ****           __catch(...)
 375:/usr/include/c++/4.8/bits/vector.tcc **** 	    {
 376:/usr/include/c++/4.8/bits/vector.tcc **** 	      if (!__new_finish)
 377:/usr/include/c++/4.8/bits/vector.tcc **** 		_Alloc_traits::destroy(this->_M_impl,
 378:/usr/include/c++/4.8/bits/vector.tcc **** 		                       __new_start + __elems_before);
 379:/usr/include/c++/4.8/bits/vector.tcc **** 	      else
 380:/usr/include/c++/4.8/bits/vector.tcc **** 		std::_Destroy(__new_start, __new_finish, _M_get_Tp_allocator());
 381:/usr/include/c++/4.8/bits/vector.tcc **** 	      _M_deallocate(__new_start, __len);
 382:/usr/include/c++/4.8/bits/vector.tcc **** 	      __throw_exception_again;
 383:/usr/include/c++/4.8/bits/vector.tcc **** 	    }
 384:/usr/include/c++/4.8/bits/vector.tcc **** 	  std::_Destroy(this->_M_impl._M_start, this->_M_impl._M_finish,
 385:/usr/include/c++/4.8/bits/vector.tcc **** 			_M_get_Tp_allocator());
 386:/usr/include/c++/4.8/bits/vector.tcc **** 	  _M_deallocate(this->_M_impl._M_start,
 387:/usr/include/c++/4.8/bits/vector.tcc **** 			this->_M_impl._M_end_of_storage
 388:/usr/include/c++/4.8/bits/vector.tcc **** 			- this->_M_impl._M_start);
 389:/usr/include/c++/4.8/bits/vector.tcc **** 	  this->_M_impl._M_start = __new_start;
 390:/usr/include/c++/4.8/bits/vector.tcc **** 	  this->_M_impl._M_finish = __new_finish;
 391:/usr/include/c++/4.8/bits/vector.tcc **** 	  this->_M_impl._M_end_of_storage = __new_start + __len;
 392:/usr/include/c++/4.8/bits/vector.tcc **** 	}
 393:/usr/include/c++/4.8/bits/vector.tcc ****     }
 394:/usr/include/c++/4.8/bits/vector.tcc **** 
 395:/usr/include/c++/4.8/bits/vector.tcc **** #if __cplusplus >= 201103L
 396:/usr/include/c++/4.8/bits/vector.tcc ****   template<typename _Tp, typename _Alloc>
 397:/usr/include/c++/4.8/bits/vector.tcc ****     template<typename... _Args>
 398:/usr/include/c++/4.8/bits/vector.tcc ****       void
 399:/usr/include/c++/4.8/bits/vector.tcc ****       vector<_Tp, _Alloc>::
  12              		.loc 1 399 0
  13              		.cfi_startproc
  14              	.LVL0:
  15 0000 4155     		pushq	%r13
  16              		.cfi_def_cfa_offset 16
  17              		.cfi_offset 13, -16
  18 0002 4154     		pushq	%r12
  19              		.cfi_def_cfa_offset 24
  20              		.cfi_offset 12, -24
  21              	.LBB288:
  22              	.LBB289:
  23              	.LBB290:
  24              	.LBB291:
  25              	.LBB292:
  26              		.file 2 "/usr/include/c++/4.8/bits/stl_algobase.h"
   1:/usr/include/c++/4.8/bits/stl_algobase.h **** // Core algorithmic facilities -*- C++ -*-
   2:/usr/include/c++/4.8/bits/stl_algobase.h **** 
   3:/usr/include/c++/4.8/bits/stl_algobase.h **** // Copyright (C) 2001-2013 Free Software Foundation, Inc.
   4:/usr/include/c++/4.8/bits/stl_algobase.h **** //
   5:/usr/include/c++/4.8/bits/stl_algobase.h **** // This file is part of the GNU ISO C++ Library.  This library is free
   6:/usr/include/c++/4.8/bits/stl_algobase.h **** // software; you can redistribute it and/or modify it under the
   7:/usr/include/c++/4.8/bits/stl_algobase.h **** // terms of the GNU General Public License as published by the
   8:/usr/include/c++/4.8/bits/stl_algobase.h **** // Free Software Foundation; either version 3, or (at your option)
   9:/usr/include/c++/4.8/bits/stl_algobase.h **** // any later version.
  10:/usr/include/c++/4.8/bits/stl_algobase.h **** 
  11:/usr/include/c++/4.8/bits/stl_algobase.h **** // This library is distributed in the hope that it will be useful,
  12:/usr/include/c++/4.8/bits/stl_algobase.h **** // but WITHOUT ANY WARRANTY; without even the implied warranty of
  13:/usr/include/c++/4.8/bits/stl_algobase.h **** // MERCHANTABILITY or FITNESS FOR A PARTICULAR PURPOSE.  See the
  14:/usr/include/c++/4.8/bits/stl_algobase.h **** // GNU General Public License for more details.
  15:/usr/include/c++/4.8/bits/stl_algobase.h **** 
  16:/usr/include/c++/4.8/bits/stl_algobase.h **** // Under Section 7 of GPL version 3, you are granted additional
  17:/usr/include/c++/4.8/bits/stl_algobase.h **** // permissions described in the GCC Runtime Library Exception, version
  18:/usr/include/c++/4.8/bits/stl_algobase.h **** // 3.1, as published by the Free Software Foundation.
  19:/usr/include/c++/4.8/bits/stl_algobase.h **** 
  20:/usr/include/c++/4.8/bits/stl_algobase.h **** // You should have received a copy of the GNU General Public License and
  21:/usr/include/c++/4.8/bits/stl_algobase.h **** // a copy of the GCC Runtime Library Exception along with this program;
  22:/usr/include/c++/4.8/bits/stl_algobase.h **** // see the files COPYING3 and COPYING.RUNTIME respectively.  If not, see
  23:/usr/include/c++/4.8/bits/stl_algobase.h **** // <http://www.gnu.org/licenses/>.
  24:/usr/include/c++/4.8/bits/stl_algobase.h **** 
  25:/usr/include/c++/4.8/bits/stl_algobase.h **** /*
  26:/usr/include/c++/4.8/bits/stl_algobase.h ****  *
  27:/usr/include/c++/4.8/bits/stl_algobase.h ****  * Copyright (c) 1994
  28:/usr/include/c++/4.8/bits/stl_algobase.h ****  * Hewlett-Packard Company
  29:/usr/include/c++/4.8/bits/stl_algobase.h ****  *
  30:/usr/include/c++/4.8/bits/stl_algobase.h ****  * Permission to use, copy, modify, distribute and sell this software
  31:/usr/include/c++/4.8/bits/stl_algobase.h ****  * and its documentation for any purpose is hereby granted without fee,
  32:/usr/include/c++/4.8/bits/stl_algobase.h ****  * provided that the above copyright notice appear in all copies and
  33:/usr/include/c++/4.8/bits/stl_algobase.h ****  * that both that copyright notice and this permission notice appear
  34:/usr/include/c++/4.8/bits/stl_algobase.h ****  * in supporting documentation.  Hewlett-Packard Company makes no
  35:/usr/include/c++/4.8/bits/stl_algobase.h ****  * representations about the suitability of this software for any
  36:/usr/include/c++/4.8/bits/stl_algobase.h ****  * purpose.  It is provided "as is" without express or implied warranty.
  37:/usr/include/c++/4.8/bits/stl_algobase.h ****  *
  38:/usr/include/c++/4.8/bits/stl_algobase.h ****  *
  39:/usr/include/c++/4.8/bits/stl_algobase.h ****  * Copyright (c) 1996-1998
  40:/usr/include/c++/4.8/bits/stl_algobase.h ****  * Silicon Graphics Computer Systems, Inc.
  41:/usr/include/c++/4.8/bits/stl_algobase.h ****  *
  42:/usr/include/c++/4.8/bits/stl_algobase.h ****  * Permission to use, copy, modify, distribute and sell this software
  43:/usr/include/c++/4.8/bits/stl_algobase.h ****  * and its documentation for any purpose is hereby granted without fee,
  44:/usr/include/c++/4.8/bits/stl_algobase.h ****  * provided that the above copyright notice appear in all copies and
  45:/usr/include/c++/4.8/bits/stl_algobase.h ****  * that both that copyright notice and this permission notice appear
  46:/usr/include/c++/4.8/bits/stl_algobase.h ****  * in supporting documentation.  Silicon Graphics makes no
  47:/usr/include/c++/4.8/bits/stl_algobase.h ****  * representations about the suitability of this software for any
  48:/usr/include/c++/4.8/bits/stl_algobase.h ****  * purpose.  It is provided "as is" without express or implied warranty.
  49:/usr/include/c++/4.8/bits/stl_algobase.h ****  */
  50:/usr/include/c++/4.8/bits/stl_algobase.h **** 
  51:/usr/include/c++/4.8/bits/stl_algobase.h **** /** @file bits/stl_algobase.h
  52:/usr/include/c++/4.8/bits/stl_algobase.h ****  *  This is an internal header file, included by other library headers.
  53:/usr/include/c++/4.8/bits/stl_algobase.h ****  *  Do not attempt to use it directly. @headername{algorithm}
  54:/usr/include/c++/4.8/bits/stl_algobase.h ****  */
  55:/usr/include/c++/4.8/bits/stl_algobase.h **** 
  56:/usr/include/c++/4.8/bits/stl_algobase.h **** #ifndef _STL_ALGOBASE_H
  57:/usr/include/c++/4.8/bits/stl_algobase.h **** #define _STL_ALGOBASE_H 1
  58:/usr/include/c++/4.8/bits/stl_algobase.h **** 
  59:/usr/include/c++/4.8/bits/stl_algobase.h **** #include <bits/c++config.h>
  60:/usr/include/c++/4.8/bits/stl_algobase.h **** #include <bits/functexcept.h>
  61:/usr/include/c++/4.8/bits/stl_algobase.h **** #include <bits/cpp_type_traits.h>
  62:/usr/include/c++/4.8/bits/stl_algobase.h **** #include <ext/type_traits.h>
  63:/usr/include/c++/4.8/bits/stl_algobase.h **** #include <ext/numeric_traits.h>
  64:/usr/include/c++/4.8/bits/stl_algobase.h **** #include <bits/stl_pair.h>
  65:/usr/include/c++/4.8/bits/stl_algobase.h **** #include <bits/stl_iterator_base_types.h>
  66:/usr/include/c++/4.8/bits/stl_algobase.h **** #include <bits/stl_iterator_base_funcs.h>
  67:/usr/include/c++/4.8/bits/stl_algobase.h **** #include <bits/stl_iterator.h>
  68:/usr/include/c++/4.8/bits/stl_algobase.h **** #include <bits/concept_check.h>
  69:/usr/include/c++/4.8/bits/stl_algobase.h **** #include <debug/debug.h>
  70:/usr/include/c++/4.8/bits/stl_algobase.h **** #include <bits/move.h> // For std::swap and _GLIBCXX_MOVE
  71:/usr/include/c++/4.8/bits/stl_algobase.h **** 
  72:/usr/include/c++/4.8/bits/stl_algobase.h **** namespace std _GLIBCXX_VISIBILITY(default)
  73:/usr/include/c++/4.8/bits/stl_algobase.h **** {
  74:/usr/include/c++/4.8/bits/stl_algobase.h **** _GLIBCXX_BEGIN_NAMESPACE_VERSION
  75:/usr/include/c++/4.8/bits/stl_algobase.h **** 
  76:/usr/include/c++/4.8/bits/stl_algobase.h **** #if __cplusplus < 201103L
  77:/usr/include/c++/4.8/bits/stl_algobase.h ****   // See http://gcc.gnu.org/ml/libstdc++/2004-08/msg00167.html: in a
  78:/usr/include/c++/4.8/bits/stl_algobase.h ****   // nutshell, we are partially implementing the resolution of DR 187,
  79:/usr/include/c++/4.8/bits/stl_algobase.h ****   // when it's safe, i.e., the value_types are equal.
  80:/usr/include/c++/4.8/bits/stl_algobase.h ****   template<bool _BoolType>
  81:/usr/include/c++/4.8/bits/stl_algobase.h ****     struct __iter_swap
  82:/usr/include/c++/4.8/bits/stl_algobase.h ****     {
  83:/usr/include/c++/4.8/bits/stl_algobase.h ****       template<typename _ForwardIterator1, typename _ForwardIterator2>
  84:/usr/include/c++/4.8/bits/stl_algobase.h ****         static void
  85:/usr/include/c++/4.8/bits/stl_algobase.h ****         iter_swap(_ForwardIterator1 __a, _ForwardIterator2 __b)
  86:/usr/include/c++/4.8/bits/stl_algobase.h ****         {
  87:/usr/include/c++/4.8/bits/stl_algobase.h ****           typedef typename iterator_traits<_ForwardIterator1>::value_type
  88:/usr/include/c++/4.8/bits/stl_algobase.h ****             _ValueType1;
  89:/usr/include/c++/4.8/bits/stl_algobase.h ****           _ValueType1 __tmp = _GLIBCXX_MOVE(*__a);
  90:/usr/include/c++/4.8/bits/stl_algobase.h ****           *__a = _GLIBCXX_MOVE(*__b);
  91:/usr/include/c++/4.8/bits/stl_algobase.h ****           *__b = _GLIBCXX_MOVE(__tmp);
  92:/usr/include/c++/4.8/bits/stl_algobase.h **** 	}
  93:/usr/include/c++/4.8/bits/stl_algobase.h ****     };
  94:/usr/include/c++/4.8/bits/stl_algobase.h **** 
  95:/usr/include/c++/4.8/bits/stl_algobase.h ****   template<>
  96:/usr/include/c++/4.8/bits/stl_algobase.h ****     struct __iter_swap<true>
  97:/usr/include/c++/4.8/bits/stl_algobase.h ****     {
  98:/usr/include/c++/4.8/bits/stl_algobase.h ****       template<typename _ForwardIterator1, typename _ForwardIterator2>
  99:/usr/include/c++/4.8/bits/stl_algobase.h ****         static void 
 100:/usr/include/c++/4.8/bits/stl_algobase.h ****         iter_swap(_ForwardIterator1 __a, _ForwardIterator2 __b)
 101:/usr/include/c++/4.8/bits/stl_algobase.h ****         {
 102:/usr/include/c++/4.8/bits/stl_algobase.h ****           swap(*__a, *__b);
 103:/usr/include/c++/4.8/bits/stl_algobase.h ****         }
 104:/usr/include/c++/4.8/bits/stl_algobase.h ****     };
 105:/usr/include/c++/4.8/bits/stl_algobase.h **** #endif
 106:/usr/include/c++/4.8/bits/stl_algobase.h **** 
 107:/usr/include/c++/4.8/bits/stl_algobase.h ****   /**
 108:/usr/include/c++/4.8/bits/stl_algobase.h ****    *  @brief Swaps the contents of two iterators.
 109:/usr/include/c++/4.8/bits/stl_algobase.h ****    *  @ingroup mutating_algorithms
 110:/usr/include/c++/4.8/bits/stl_algobase.h ****    *  @param  __a  An iterator.
 111:/usr/include/c++/4.8/bits/stl_algobase.h ****    *  @param  __b  Another iterator.
 112:/usr/include/c++/4.8/bits/stl_algobase.h ****    *  @return   Nothing.
 113:/usr/include/c++/4.8/bits/stl_algobase.h ****    *
 114:/usr/include/c++/4.8/bits/stl_algobase.h ****    *  This function swaps the values pointed to by two iterators, not the
 115:/usr/include/c++/4.8/bits/stl_algobase.h ****    *  iterators themselves.
 116:/usr/include/c++/4.8/bits/stl_algobase.h ****   */
 117:/usr/include/c++/4.8/bits/stl_algobase.h ****   template<typename _ForwardIterator1, typename _ForwardIterator2>
 118:/usr/include/c++/4.8/bits/stl_algobase.h ****     inline void
 119:/usr/include/c++/4.8/bits/stl_algobase.h ****     iter_swap(_ForwardIterator1 __a, _ForwardIterator2 __b)
 120:/usr/include/c++/4.8/bits/stl_algobase.h ****     {
 121:/usr/include/c++/4.8/bits/stl_algobase.h ****       // concept requirements
 122:/usr/include/c++/4.8/bits/stl_algobase.h ****       __glibcxx_function_requires(_Mutable_ForwardIteratorConcept<
 123:/usr/include/c++/4.8/bits/stl_algobase.h **** 				  _ForwardIterator1>)
 124:/usr/include/c++/4.8/bits/stl_algobase.h ****       __glibcxx_function_requires(_Mutable_ForwardIteratorConcept<
 125:/usr/include/c++/4.8/bits/stl_algobase.h **** 				  _ForwardIterator2>)
 126:/usr/include/c++/4.8/bits/stl_algobase.h **** 
 127:/usr/include/c++/4.8/bits/stl_algobase.h **** #if __cplusplus < 201103L
 128:/usr/include/c++/4.8/bits/stl_algobase.h ****       typedef typename iterator_traits<_ForwardIterator1>::value_type
 129:/usr/include/c++/4.8/bits/stl_algobase.h **** 	_ValueType1;
 130:/usr/include/c++/4.8/bits/stl_algobase.h ****       typedef typename iterator_traits<_ForwardIterator2>::value_type
 131:/usr/include/c++/4.8/bits/stl_algobase.h **** 	_ValueType2;
 132:/usr/include/c++/4.8/bits/stl_algobase.h **** 
 133:/usr/include/c++/4.8/bits/stl_algobase.h ****       __glibcxx_function_requires(_ConvertibleConcept<_ValueType1,
 134:/usr/include/c++/4.8/bits/stl_algobase.h **** 				  _ValueType2>)
 135:/usr/include/c++/4.8/bits/stl_algobase.h ****       __glibcxx_function_requires(_ConvertibleConcept<_ValueType2,
 136:/usr/include/c++/4.8/bits/stl_algobase.h **** 				  _ValueType1>)
 137:/usr/include/c++/4.8/bits/stl_algobase.h **** 
 138:/usr/include/c++/4.8/bits/stl_algobase.h ****       typedef typename iterator_traits<_ForwardIterator1>::reference
 139:/usr/include/c++/4.8/bits/stl_algobase.h **** 	_ReferenceType1;
 140:/usr/include/c++/4.8/bits/stl_algobase.h ****       typedef typename iterator_traits<_ForwardIterator2>::reference
 141:/usr/include/c++/4.8/bits/stl_algobase.h **** 	_ReferenceType2;
 142:/usr/include/c++/4.8/bits/stl_algobase.h ****       std::__iter_swap<__are_same<_ValueType1, _ValueType2>::__value
 143:/usr/include/c++/4.8/bits/stl_algobase.h **** 	&& __are_same<_ValueType1&, _ReferenceType1>::__value
 144:/usr/include/c++/4.8/bits/stl_algobase.h **** 	&& __are_same<_ValueType2&, _ReferenceType2>::__value>::
 145:/usr/include/c++/4.8/bits/stl_algobase.h **** 	iter_swap(__a, __b);
 146:/usr/include/c++/4.8/bits/stl_algobase.h **** #else
 147:/usr/include/c++/4.8/bits/stl_algobase.h ****       swap(*__a, *__b);
 148:/usr/include/c++/4.8/bits/stl_algobase.h **** #endif
 149:/usr/include/c++/4.8/bits/stl_algobase.h ****     }
 150:/usr/include/c++/4.8/bits/stl_algobase.h **** 
 151:/usr/include/c++/4.8/bits/stl_algobase.h ****   /**
 152:/usr/include/c++/4.8/bits/stl_algobase.h ****    *  @brief Swap the elements of two sequences.
 153:/usr/include/c++/4.8/bits/stl_algobase.h ****    *  @ingroup mutating_algorithms
 154:/usr/include/c++/4.8/bits/stl_algobase.h ****    *  @param  __first1  A forward iterator.
 155:/usr/include/c++/4.8/bits/stl_algobase.h ****    *  @param  __last1   A forward iterator.
 156:/usr/include/c++/4.8/bits/stl_algobase.h ****    *  @param  __first2  A forward iterator.
 157:/usr/include/c++/4.8/bits/stl_algobase.h ****    *  @return   An iterator equal to @p first2+(last1-first1).
 158:/usr/include/c++/4.8/bits/stl_algobase.h ****    *
 159:/usr/include/c++/4.8/bits/stl_algobase.h ****    *  Swaps each element in the range @p [first1,last1) with the
 160:/usr/include/c++/4.8/bits/stl_algobase.h ****    *  corresponding element in the range @p [first2,(last1-first1)).
 161:/usr/include/c++/4.8/bits/stl_algobase.h ****    *  The ranges must not overlap.
 162:/usr/include/c++/4.8/bits/stl_algobase.h ****   */
 163:/usr/include/c++/4.8/bits/stl_algobase.h ****   template<typename _ForwardIterator1, typename _ForwardIterator2>
 164:/usr/include/c++/4.8/bits/stl_algobase.h ****     _ForwardIterator2
 165:/usr/include/c++/4.8/bits/stl_algobase.h ****     swap_ranges(_ForwardIterator1 __first1, _ForwardIterator1 __last1,
 166:/usr/include/c++/4.8/bits/stl_algobase.h **** 		_ForwardIterator2 __first2)
 167:/usr/include/c++/4.8/bits/stl_algobase.h ****     {
 168:/usr/include/c++/4.8/bits/stl_algobase.h ****       // concept requirements
 169:/usr/include/c++/4.8/bits/stl_algobase.h ****       __glibcxx_function_requires(_Mutable_ForwardIteratorConcept<
 170:/usr/include/c++/4.8/bits/stl_algobase.h **** 				  _ForwardIterator1>)
 171:/usr/include/c++/4.8/bits/stl_algobase.h ****       __glibcxx_function_requires(_Mutable_ForwardIteratorConcept<
 172:/usr/include/c++/4.8/bits/stl_algobase.h **** 				  _ForwardIterator2>)
 173:/usr/include/c++/4.8/bits/stl_algobase.h ****       __glibcxx_requires_valid_range(__first1, __last1);
 174:/usr/include/c++/4.8/bits/stl_algobase.h **** 
 175:/usr/include/c++/4.8/bits/stl_algobase.h ****       for (; __first1 != __last1; ++__first1, ++__first2)
 176:/usr/include/c++/4.8/bits/stl_algobase.h **** 	std::iter_swap(__first1, __first2);
 177:/usr/include/c++/4.8/bits/stl_algobase.h ****       return __first2;
 178:/usr/include/c++/4.8/bits/stl_algobase.h ****     }
 179:/usr/include/c++/4.8/bits/stl_algobase.h **** 
 180:/usr/include/c++/4.8/bits/stl_algobase.h ****   /**
 181:/usr/include/c++/4.8/bits/stl_algobase.h ****    *  @brief This does what you think it does.
 182:/usr/include/c++/4.8/bits/stl_algobase.h ****    *  @ingroup sorting_algorithms
 183:/usr/include/c++/4.8/bits/stl_algobase.h ****    *  @param  __a  A thing of arbitrary type.
 184:/usr/include/c++/4.8/bits/stl_algobase.h ****    *  @param  __b  Another thing of arbitrary type.
 185:/usr/include/c++/4.8/bits/stl_algobase.h ****    *  @return   The lesser of the parameters.
 186:/usr/include/c++/4.8/bits/stl_algobase.h ****    *
 187:/usr/include/c++/4.8/bits/stl_algobase.h ****    *  This is the simple classic generic implementation.  It will work on
 188:/usr/include/c++/4.8/bits/stl_algobase.h ****    *  temporary expressions, since they are only evaluated once, unlike a
 189:/usr/include/c++/4.8/bits/stl_algobase.h ****    *  preprocessor macro.
 190:/usr/include/c++/4.8/bits/stl_algobase.h ****   */
 191:/usr/include/c++/4.8/bits/stl_algobase.h ****   template<typename _Tp>
 192:/usr/include/c++/4.8/bits/stl_algobase.h ****     inline const _Tp&
 193:/usr/include/c++/4.8/bits/stl_algobase.h ****     min(const _Tp& __a, const _Tp& __b)
 194:/usr/include/c++/4.8/bits/stl_algobase.h ****     {
 195:/usr/include/c++/4.8/bits/stl_algobase.h ****       // concept requirements
 196:/usr/include/c++/4.8/bits/stl_algobase.h ****       __glibcxx_function_requires(_LessThanComparableConcept<_Tp>)
 197:/usr/include/c++/4.8/bits/stl_algobase.h ****       //return __b < __a ? __b : __a;
 198:/usr/include/c++/4.8/bits/stl_algobase.h ****       if (__b < __a)
 199:/usr/include/c++/4.8/bits/stl_algobase.h **** 	return __b;
 200:/usr/include/c++/4.8/bits/stl_algobase.h ****       return __a;
 201:/usr/include/c++/4.8/bits/stl_algobase.h ****     }
 202:/usr/include/c++/4.8/bits/stl_algobase.h **** 
 203:/usr/include/c++/4.8/bits/stl_algobase.h ****   /**
 204:/usr/include/c++/4.8/bits/stl_algobase.h ****    *  @brief This does what you think it does.
 205:/usr/include/c++/4.8/bits/stl_algobase.h ****    *  @ingroup sorting_algorithms
 206:/usr/include/c++/4.8/bits/stl_algobase.h ****    *  @param  __a  A thing of arbitrary type.
 207:/usr/include/c++/4.8/bits/stl_algobase.h ****    *  @param  __b  Another thing of arbitrary type.
 208:/usr/include/c++/4.8/bits/stl_algobase.h ****    *  @return   The greater of the parameters.
 209:/usr/include/c++/4.8/bits/stl_algobase.h ****    *
 210:/usr/include/c++/4.8/bits/stl_algobase.h ****    *  This is the simple classic generic implementation.  It will work on
 211:/usr/include/c++/4.8/bits/stl_algobase.h ****    *  temporary expressions, since they are only evaluated once, unlike a
 212:/usr/include/c++/4.8/bits/stl_algobase.h ****    *  preprocessor macro.
 213:/usr/include/c++/4.8/bits/stl_algobase.h ****   */
 214:/usr/include/c++/4.8/bits/stl_algobase.h ****   template<typename _Tp>
 215:/usr/include/c++/4.8/bits/stl_algobase.h ****     inline const _Tp&
 216:/usr/include/c++/4.8/bits/stl_algobase.h ****     max(const _Tp& __a, const _Tp& __b)
 217:/usr/include/c++/4.8/bits/stl_algobase.h ****     {
 218:/usr/include/c++/4.8/bits/stl_algobase.h ****       // concept requirements
 219:/usr/include/c++/4.8/bits/stl_algobase.h ****       __glibcxx_function_requires(_LessThanComparableConcept<_Tp>)
 220:/usr/include/c++/4.8/bits/stl_algobase.h ****       //return  __a < __b ? __b : __a;
 221:/usr/include/c++/4.8/bits/stl_algobase.h ****       if (__a < __b)
  27              		.loc 2 221 0
  28 0004 41BC0400 		movl	$4, %r12d
  28      0000
  29              	.LBE292:
  30              	.LBE291:
  31              	.LBE290:
  32              	.LBE289:
  33              	.LBE288:
  34              		.loc 1 399 0
  35 000a 55       		pushq	%rbp
  36              		.cfi_def_cfa_offset 32
  37              		.cfi_offset 6, -32
  38 000b 53       		pushq	%rbx
  39              		.cfi_def_cfa_offset 40
  40              		.cfi_offset 3, -40
  41 000c 4889FB   		movq	%rdi, %rbx
  42 000f 4883EC18 		subq	$24, %rsp
  43              		.cfi_def_cfa_offset 64
  44              	.LBB327:
  45              	.LBB299:
  46              	.LBB297:
  47              	.LBB294:
  48              	.LBB295:
  49              		.file 3 "/usr/include/c++/4.8/bits/stl_vector.h"
   1:/usr/include/c++/4.8/bits/stl_vector.h **** // Vector implementation -*- C++ -*-
   2:/usr/include/c++/4.8/bits/stl_vector.h **** 
   3:/usr/include/c++/4.8/bits/stl_vector.h **** // Copyright (C) 2001-2013 Free Software Foundation, Inc.
   4:/usr/include/c++/4.8/bits/stl_vector.h **** //
   5:/usr/include/c++/4.8/bits/stl_vector.h **** // This file is part of the GNU ISO C++ Library.  This library is free
   6:/usr/include/c++/4.8/bits/stl_vector.h **** // software; you can redistribute it and/or modify it under the
   7:/usr/include/c++/4.8/bits/stl_vector.h **** // terms of the GNU General Public License as published by the
   8:/usr/include/c++/4.8/bits/stl_vector.h **** // Free Software Foundation; either version 3, or (at your option)
   9:/usr/include/c++/4.8/bits/stl_vector.h **** // any later version.
  10:/usr/include/c++/4.8/bits/stl_vector.h **** 
  11:/usr/include/c++/4.8/bits/stl_vector.h **** // This library is distributed in the hope that it will be useful,
  12:/usr/include/c++/4.8/bits/stl_vector.h **** // but WITHOUT ANY WARRANTY; without even the implied warranty of
  13:/usr/include/c++/4.8/bits/stl_vector.h **** // MERCHANTABILITY or FITNESS FOR A PARTICULAR PURPOSE.  See the
  14:/usr/include/c++/4.8/bits/stl_vector.h **** // GNU General Public License for more details.
  15:/usr/include/c++/4.8/bits/stl_vector.h **** 
  16:/usr/include/c++/4.8/bits/stl_vector.h **** // Under Section 7 of GPL version 3, you are granted additional
  17:/usr/include/c++/4.8/bits/stl_vector.h **** // permissions described in the GCC Runtime Library Exception, version
  18:/usr/include/c++/4.8/bits/stl_vector.h **** // 3.1, as published by the Free Software Foundation.
  19:/usr/include/c++/4.8/bits/stl_vector.h **** 
  20:/usr/include/c++/4.8/bits/stl_vector.h **** // You should have received a copy of the GNU General Public License and
  21:/usr/include/c++/4.8/bits/stl_vector.h **** // a copy of the GCC Runtime Library Exception along with this program;
  22:/usr/include/c++/4.8/bits/stl_vector.h **** // see the files COPYING3 and COPYING.RUNTIME respectively.  If not, see
  23:/usr/include/c++/4.8/bits/stl_vector.h **** // <http://www.gnu.org/licenses/>.
  24:/usr/include/c++/4.8/bits/stl_vector.h **** 
  25:/usr/include/c++/4.8/bits/stl_vector.h **** /*
  26:/usr/include/c++/4.8/bits/stl_vector.h ****  *
  27:/usr/include/c++/4.8/bits/stl_vector.h ****  * Copyright (c) 1994
  28:/usr/include/c++/4.8/bits/stl_vector.h ****  * Hewlett-Packard Company
  29:/usr/include/c++/4.8/bits/stl_vector.h ****  *
  30:/usr/include/c++/4.8/bits/stl_vector.h ****  * Permission to use, copy, modify, distribute and sell this software
  31:/usr/include/c++/4.8/bits/stl_vector.h ****  * and its documentation for any purpose is hereby granted without fee,
  32:/usr/include/c++/4.8/bits/stl_vector.h ****  * provided that the above copyright notice appear in all copies and
  33:/usr/include/c++/4.8/bits/stl_vector.h ****  * that both that copyright notice and this permission notice appear
  34:/usr/include/c++/4.8/bits/stl_vector.h ****  * in supporting documentation.  Hewlett-Packard Company makes no
  35:/usr/include/c++/4.8/bits/stl_vector.h ****  * representations about the suitability of this software for any
  36:/usr/include/c++/4.8/bits/stl_vector.h ****  * purpose.  It is provided "as is" without express or implied warranty.
  37:/usr/include/c++/4.8/bits/stl_vector.h ****  *
  38:/usr/include/c++/4.8/bits/stl_vector.h ****  *
  39:/usr/include/c++/4.8/bits/stl_vector.h ****  * Copyright (c) 1996
  40:/usr/include/c++/4.8/bits/stl_vector.h ****  * Silicon Graphics Computer Systems, Inc.
  41:/usr/include/c++/4.8/bits/stl_vector.h ****  *
  42:/usr/include/c++/4.8/bits/stl_vector.h ****  * Permission to use, copy, modify, distribute and sell this software
  43:/usr/include/c++/4.8/bits/stl_vector.h ****  * and its documentation for any purpose is hereby granted without fee,
  44:/usr/include/c++/4.8/bits/stl_vector.h ****  * provided that the above copyright notice appear in all copies and
  45:/usr/include/c++/4.8/bits/stl_vector.h ****  * that both that copyright notice and this permission notice appear
  46:/usr/include/c++/4.8/bits/stl_vector.h ****  * in supporting documentation.  Silicon Graphics makes no
  47:/usr/include/c++/4.8/bits/stl_vector.h ****  * representations about the suitability of this  software for any
  48:/usr/include/c++/4.8/bits/stl_vector.h ****  * purpose.  It is provided "as is" without express or implied warranty.
  49:/usr/include/c++/4.8/bits/stl_vector.h ****  */
  50:/usr/include/c++/4.8/bits/stl_vector.h **** 
  51:/usr/include/c++/4.8/bits/stl_vector.h **** /** @file bits/stl_vector.h
  52:/usr/include/c++/4.8/bits/stl_vector.h ****  *  This is an internal header file, included by other library headers.
  53:/usr/include/c++/4.8/bits/stl_vector.h ****  *  Do not attempt to use it directly. @headername{vector}
  54:/usr/include/c++/4.8/bits/stl_vector.h ****  */
  55:/usr/include/c++/4.8/bits/stl_vector.h **** 
  56:/usr/include/c++/4.8/bits/stl_vector.h **** #ifndef _STL_VECTOR_H
  57:/usr/include/c++/4.8/bits/stl_vector.h **** #define _STL_VECTOR_H 1
  58:/usr/include/c++/4.8/bits/stl_vector.h **** 
  59:/usr/include/c++/4.8/bits/stl_vector.h **** #include <bits/stl_iterator_base_funcs.h>
  60:/usr/include/c++/4.8/bits/stl_vector.h **** #include <bits/functexcept.h>
  61:/usr/include/c++/4.8/bits/stl_vector.h **** #include <bits/concept_check.h>
  62:/usr/include/c++/4.8/bits/stl_vector.h **** #if __cplusplus >= 201103L
  63:/usr/include/c++/4.8/bits/stl_vector.h **** #include <initializer_list>
  64:/usr/include/c++/4.8/bits/stl_vector.h **** #endif
  65:/usr/include/c++/4.8/bits/stl_vector.h **** 
  66:/usr/include/c++/4.8/bits/stl_vector.h **** namespace std _GLIBCXX_VISIBILITY(default)
  67:/usr/include/c++/4.8/bits/stl_vector.h **** {
  68:/usr/include/c++/4.8/bits/stl_vector.h **** _GLIBCXX_BEGIN_NAMESPACE_CONTAINER
  69:/usr/include/c++/4.8/bits/stl_vector.h **** 
  70:/usr/include/c++/4.8/bits/stl_vector.h ****   /// See bits/stl_deque.h's _Deque_base for an explanation.
  71:/usr/include/c++/4.8/bits/stl_vector.h ****   template<typename _Tp, typename _Alloc>
  72:/usr/include/c++/4.8/bits/stl_vector.h ****     struct _Vector_base
  73:/usr/include/c++/4.8/bits/stl_vector.h ****     {
  74:/usr/include/c++/4.8/bits/stl_vector.h ****       typedef typename __gnu_cxx::__alloc_traits<_Alloc>::template
  75:/usr/include/c++/4.8/bits/stl_vector.h ****         rebind<_Tp>::other _Tp_alloc_type;
  76:/usr/include/c++/4.8/bits/stl_vector.h ****       typedef typename __gnu_cxx::__alloc_traits<_Tp_alloc_type>::pointer
  77:/usr/include/c++/4.8/bits/stl_vector.h ****        	pointer;
  78:/usr/include/c++/4.8/bits/stl_vector.h **** 
  79:/usr/include/c++/4.8/bits/stl_vector.h ****       struct _Vector_impl 
  80:/usr/include/c++/4.8/bits/stl_vector.h ****       : public _Tp_alloc_type
  81:/usr/include/c++/4.8/bits/stl_vector.h ****       {
  82:/usr/include/c++/4.8/bits/stl_vector.h **** 	pointer _M_start;
  83:/usr/include/c++/4.8/bits/stl_vector.h **** 	pointer _M_finish;
  84:/usr/include/c++/4.8/bits/stl_vector.h **** 	pointer _M_end_of_storage;
  85:/usr/include/c++/4.8/bits/stl_vector.h **** 
  86:/usr/include/c++/4.8/bits/stl_vector.h **** 	_Vector_impl()
  87:/usr/include/c++/4.8/bits/stl_vector.h **** 	: _Tp_alloc_type(), _M_start(0), _M_finish(0), _M_end_of_storage(0)
  88:/usr/include/c++/4.8/bits/stl_vector.h **** 	{ }
  89:/usr/include/c++/4.8/bits/stl_vector.h **** 
  90:/usr/include/c++/4.8/bits/stl_vector.h **** 	_Vector_impl(_Tp_alloc_type const& __a)
  91:/usr/include/c++/4.8/bits/stl_vector.h **** 	: _Tp_alloc_type(__a), _M_start(0), _M_finish(0), _M_end_of_storage(0)
  92:/usr/include/c++/4.8/bits/stl_vector.h **** 	{ }
  93:/usr/include/c++/4.8/bits/stl_vector.h **** 
  94:/usr/include/c++/4.8/bits/stl_vector.h **** #if __cplusplus >= 201103L
  95:/usr/include/c++/4.8/bits/stl_vector.h **** 	_Vector_impl(_Tp_alloc_type&& __a)
  96:/usr/include/c++/4.8/bits/stl_vector.h **** 	: _Tp_alloc_type(std::move(__a)),
  97:/usr/include/c++/4.8/bits/stl_vector.h **** 	  _M_start(0), _M_finish(0), _M_end_of_storage(0)
  98:/usr/include/c++/4.8/bits/stl_vector.h **** 	{ }
  99:/usr/include/c++/4.8/bits/stl_vector.h **** #endif
 100:/usr/include/c++/4.8/bits/stl_vector.h **** 
 101:/usr/include/c++/4.8/bits/stl_vector.h **** 	void _M_swap_data(_Vector_impl& __x)
 102:/usr/include/c++/4.8/bits/stl_vector.h **** 	{
 103:/usr/include/c++/4.8/bits/stl_vector.h **** 	  std::swap(_M_start, __x._M_start);
 104:/usr/include/c++/4.8/bits/stl_vector.h **** 	  std::swap(_M_finish, __x._M_finish);
 105:/usr/include/c++/4.8/bits/stl_vector.h **** 	  std::swap(_M_end_of_storage, __x._M_end_of_storage);
 106:/usr/include/c++/4.8/bits/stl_vector.h **** 	}
 107:/usr/include/c++/4.8/bits/stl_vector.h ****       };
 108:/usr/include/c++/4.8/bits/stl_vector.h ****       
 109:/usr/include/c++/4.8/bits/stl_vector.h ****     public:
 110:/usr/include/c++/4.8/bits/stl_vector.h ****       typedef _Alloc allocator_type;
 111:/usr/include/c++/4.8/bits/stl_vector.h **** 
 112:/usr/include/c++/4.8/bits/stl_vector.h ****       _Tp_alloc_type&
 113:/usr/include/c++/4.8/bits/stl_vector.h ****       _M_get_Tp_allocator() _GLIBCXX_NOEXCEPT
 114:/usr/include/c++/4.8/bits/stl_vector.h ****       { return *static_cast<_Tp_alloc_type*>(&this->_M_impl); }
 115:/usr/include/c++/4.8/bits/stl_vector.h **** 
 116:/usr/include/c++/4.8/bits/stl_vector.h ****       const _Tp_alloc_type&
 117:/usr/include/c++/4.8/bits/stl_vector.h ****       _M_get_Tp_allocator() const _GLIBCXX_NOEXCEPT
 118:/usr/include/c++/4.8/bits/stl_vector.h ****       { return *static_cast<const _Tp_alloc_type*>(&this->_M_impl); }
 119:/usr/include/c++/4.8/bits/stl_vector.h **** 
 120:/usr/include/c++/4.8/bits/stl_vector.h ****       allocator_type
 121:/usr/include/c++/4.8/bits/stl_vector.h ****       get_allocator() const _GLIBCXX_NOEXCEPT
 122:/usr/include/c++/4.8/bits/stl_vector.h ****       { return allocator_type(_M_get_Tp_allocator()); }
 123:/usr/include/c++/4.8/bits/stl_vector.h **** 
 124:/usr/include/c++/4.8/bits/stl_vector.h ****       _Vector_base()
 125:/usr/include/c++/4.8/bits/stl_vector.h ****       : _M_impl() { }
 126:/usr/include/c++/4.8/bits/stl_vector.h **** 
 127:/usr/include/c++/4.8/bits/stl_vector.h ****       _Vector_base(const allocator_type& __a)
 128:/usr/include/c++/4.8/bits/stl_vector.h ****       : _M_impl(__a) { }
 129:/usr/include/c++/4.8/bits/stl_vector.h **** 
 130:/usr/include/c++/4.8/bits/stl_vector.h ****       _Vector_base(size_t __n)
 131:/usr/include/c++/4.8/bits/stl_vector.h ****       : _M_impl()
 132:/usr/include/c++/4.8/bits/stl_vector.h ****       { _M_create_storage(__n); }
 133:/usr/include/c++/4.8/bits/stl_vector.h **** 
 134:/usr/include/c++/4.8/bits/stl_vector.h ****       _Vector_base(size_t __n, const allocator_type& __a)
 135:/usr/include/c++/4.8/bits/stl_vector.h ****       : _M_impl(__a)
 136:/usr/include/c++/4.8/bits/stl_vector.h ****       { _M_create_storage(__n); }
 137:/usr/include/c++/4.8/bits/stl_vector.h **** 
 138:/usr/include/c++/4.8/bits/stl_vector.h **** #if __cplusplus >= 201103L
 139:/usr/include/c++/4.8/bits/stl_vector.h ****       _Vector_base(_Tp_alloc_type&& __a)
 140:/usr/include/c++/4.8/bits/stl_vector.h ****       : _M_impl(std::move(__a)) { }
 141:/usr/include/c++/4.8/bits/stl_vector.h **** 
 142:/usr/include/c++/4.8/bits/stl_vector.h ****       _Vector_base(_Vector_base&& __x)
 143:/usr/include/c++/4.8/bits/stl_vector.h ****       : _M_impl(std::move(__x._M_get_Tp_allocator()))
 144:/usr/include/c++/4.8/bits/stl_vector.h ****       { this->_M_impl._M_swap_data(__x._M_impl); }
 145:/usr/include/c++/4.8/bits/stl_vector.h **** 
 146:/usr/include/c++/4.8/bits/stl_vector.h ****       _Vector_base(_Vector_base&& __x, const allocator_type& __a)
 147:/usr/include/c++/4.8/bits/stl_vector.h ****       : _M_impl(__a)
 148:/usr/include/c++/4.8/bits/stl_vector.h ****       {
 149:/usr/include/c++/4.8/bits/stl_vector.h **** 	if (__x.get_allocator() == __a)
 150:/usr/include/c++/4.8/bits/stl_vector.h **** 	  this->_M_impl._M_swap_data(__x._M_impl);
 151:/usr/include/c++/4.8/bits/stl_vector.h **** 	else
 152:/usr/include/c++/4.8/bits/stl_vector.h **** 	  {
 153:/usr/include/c++/4.8/bits/stl_vector.h **** 	    size_t __n = __x._M_impl._M_finish - __x._M_impl._M_start;
 154:/usr/include/c++/4.8/bits/stl_vector.h **** 	    _M_create_storage(__n);
 155:/usr/include/c++/4.8/bits/stl_vector.h **** 	  }
 156:/usr/include/c++/4.8/bits/stl_vector.h ****       }
 157:/usr/include/c++/4.8/bits/stl_vector.h **** #endif
 158:/usr/include/c++/4.8/bits/stl_vector.h **** 
 159:/usr/include/c++/4.8/bits/stl_vector.h ****       ~_Vector_base()
 160:/usr/include/c++/4.8/bits/stl_vector.h ****       { _M_deallocate(this->_M_impl._M_start, this->_M_impl._M_end_of_storage
 161:/usr/include/c++/4.8/bits/stl_vector.h **** 		      - this->_M_impl._M_start); }
 162:/usr/include/c++/4.8/bits/stl_vector.h **** 
 163:/usr/include/c++/4.8/bits/stl_vector.h ****     public:
 164:/usr/include/c++/4.8/bits/stl_vector.h ****       _Vector_impl _M_impl;
 165:/usr/include/c++/4.8/bits/stl_vector.h **** 
 166:/usr/include/c++/4.8/bits/stl_vector.h ****       pointer
 167:/usr/include/c++/4.8/bits/stl_vector.h ****       _M_allocate(size_t __n)
 168:/usr/include/c++/4.8/bits/stl_vector.h ****       { return __n != 0 ? _M_impl.allocate(__n) : 0; }
 169:/usr/include/c++/4.8/bits/stl_vector.h **** 
 170:/usr/include/c++/4.8/bits/stl_vector.h ****       void
 171:/usr/include/c++/4.8/bits/stl_vector.h ****       _M_deallocate(pointer __p, size_t __n)
 172:/usr/include/c++/4.8/bits/stl_vector.h ****       {
 173:/usr/include/c++/4.8/bits/stl_vector.h **** 	if (__p)
 174:/usr/include/c++/4.8/bits/stl_vector.h **** 	  _M_impl.deallocate(__p, __n);
 175:/usr/include/c++/4.8/bits/stl_vector.h ****       }
 176:/usr/include/c++/4.8/bits/stl_vector.h **** 
 177:/usr/include/c++/4.8/bits/stl_vector.h ****     private:
 178:/usr/include/c++/4.8/bits/stl_vector.h ****       void
 179:/usr/include/c++/4.8/bits/stl_vector.h ****       _M_create_storage(size_t __n)
 180:/usr/include/c++/4.8/bits/stl_vector.h ****       {
 181:/usr/include/c++/4.8/bits/stl_vector.h **** 	this->_M_impl._M_start = this->_M_allocate(__n);
 182:/usr/include/c++/4.8/bits/stl_vector.h **** 	this->_M_impl._M_finish = this->_M_impl._M_start;
 183:/usr/include/c++/4.8/bits/stl_vector.h **** 	this->_M_impl._M_end_of_storage = this->_M_impl._M_start + __n;
 184:/usr/include/c++/4.8/bits/stl_vector.h ****       }
 185:/usr/include/c++/4.8/bits/stl_vector.h ****     };
 186:/usr/include/c++/4.8/bits/stl_vector.h **** 
 187:/usr/include/c++/4.8/bits/stl_vector.h **** 
 188:/usr/include/c++/4.8/bits/stl_vector.h ****   /**
 189:/usr/include/c++/4.8/bits/stl_vector.h ****    *  @brief A standard container which offers fixed time access to
 190:/usr/include/c++/4.8/bits/stl_vector.h ****    *  individual elements in any order.
 191:/usr/include/c++/4.8/bits/stl_vector.h ****    *
 192:/usr/include/c++/4.8/bits/stl_vector.h ****    *  @ingroup sequences
 193:/usr/include/c++/4.8/bits/stl_vector.h ****    *
 194:/usr/include/c++/4.8/bits/stl_vector.h ****    *  @tparam _Tp  Type of element.
 195:/usr/include/c++/4.8/bits/stl_vector.h ****    *  @tparam _Alloc  Allocator type, defaults to allocator<_Tp>.
 196:/usr/include/c++/4.8/bits/stl_vector.h ****    *
 197:/usr/include/c++/4.8/bits/stl_vector.h ****    *  Meets the requirements of a <a href="tables.html#65">container</a>, a
 198:/usr/include/c++/4.8/bits/stl_vector.h ****    *  <a href="tables.html#66">reversible container</a>, and a
 199:/usr/include/c++/4.8/bits/stl_vector.h ****    *  <a href="tables.html#67">sequence</a>, including the
 200:/usr/include/c++/4.8/bits/stl_vector.h ****    *  <a href="tables.html#68">optional sequence requirements</a> with the
 201:/usr/include/c++/4.8/bits/stl_vector.h ****    *  %exception of @c push_front and @c pop_front.
 202:/usr/include/c++/4.8/bits/stl_vector.h ****    *
 203:/usr/include/c++/4.8/bits/stl_vector.h ****    *  In some terminology a %vector can be described as a dynamic
 204:/usr/include/c++/4.8/bits/stl_vector.h ****    *  C-style array, it offers fast and efficient access to individual
 205:/usr/include/c++/4.8/bits/stl_vector.h ****    *  elements in any order and saves the user from worrying about
 206:/usr/include/c++/4.8/bits/stl_vector.h ****    *  memory and size allocation.  Subscripting ( @c [] ) access is
 207:/usr/include/c++/4.8/bits/stl_vector.h ****    *  also provided as with C-style arrays.
 208:/usr/include/c++/4.8/bits/stl_vector.h ****   */
 209:/usr/include/c++/4.8/bits/stl_vector.h ****   template<typename _Tp, typename _Alloc = std::allocator<_Tp> >
 210:/usr/include/c++/4.8/bits/stl_vector.h ****     class vector : protected _Vector_base<_Tp, _Alloc>
 211:/usr/include/c++/4.8/bits/stl_vector.h ****     {
 212:/usr/include/c++/4.8/bits/stl_vector.h ****       // Concept requirements.
 213:/usr/include/c++/4.8/bits/stl_vector.h ****       typedef typename _Alloc::value_type                _Alloc_value_type;
 214:/usr/include/c++/4.8/bits/stl_vector.h ****       __glibcxx_class_requires(_Tp, _SGIAssignableConcept)
 215:/usr/include/c++/4.8/bits/stl_vector.h ****       __glibcxx_class_requires2(_Tp, _Alloc_value_type, _SameTypeConcept)
 216:/usr/include/c++/4.8/bits/stl_vector.h ****       
 217:/usr/include/c++/4.8/bits/stl_vector.h ****       typedef _Vector_base<_Tp, _Alloc>			 _Base;
 218:/usr/include/c++/4.8/bits/stl_vector.h ****       typedef typename _Base::_Tp_alloc_type		 _Tp_alloc_type;
 219:/usr/include/c++/4.8/bits/stl_vector.h ****       typedef __gnu_cxx::__alloc_traits<_Tp_alloc_type>  _Alloc_traits;
 220:/usr/include/c++/4.8/bits/stl_vector.h **** 
 221:/usr/include/c++/4.8/bits/stl_vector.h ****     public:
 222:/usr/include/c++/4.8/bits/stl_vector.h ****       typedef _Tp					 value_type;
 223:/usr/include/c++/4.8/bits/stl_vector.h ****       typedef typename _Base::pointer                    pointer;
 224:/usr/include/c++/4.8/bits/stl_vector.h ****       typedef typename _Alloc_traits::const_pointer      const_pointer;
 225:/usr/include/c++/4.8/bits/stl_vector.h ****       typedef typename _Alloc_traits::reference          reference;
 226:/usr/include/c++/4.8/bits/stl_vector.h ****       typedef typename _Alloc_traits::const_reference    const_reference;
 227:/usr/include/c++/4.8/bits/stl_vector.h ****       typedef __gnu_cxx::__normal_iterator<pointer, vector> iterator;
 228:/usr/include/c++/4.8/bits/stl_vector.h ****       typedef __gnu_cxx::__normal_iterator<const_pointer, vector>
 229:/usr/include/c++/4.8/bits/stl_vector.h ****       const_iterator;
 230:/usr/include/c++/4.8/bits/stl_vector.h ****       typedef std::reverse_iterator<const_iterator>  const_reverse_iterator;
 231:/usr/include/c++/4.8/bits/stl_vector.h ****       typedef std::reverse_iterator<iterator>		 reverse_iterator;
 232:/usr/include/c++/4.8/bits/stl_vector.h ****       typedef size_t					 size_type;
 233:/usr/include/c++/4.8/bits/stl_vector.h ****       typedef ptrdiff_t					 difference_type;
 234:/usr/include/c++/4.8/bits/stl_vector.h ****       typedef _Alloc                        		 allocator_type;
 235:/usr/include/c++/4.8/bits/stl_vector.h **** 
 236:/usr/include/c++/4.8/bits/stl_vector.h ****     protected:
 237:/usr/include/c++/4.8/bits/stl_vector.h ****       using _Base::_M_allocate;
 238:/usr/include/c++/4.8/bits/stl_vector.h ****       using _Base::_M_deallocate;
 239:/usr/include/c++/4.8/bits/stl_vector.h ****       using _Base::_M_impl;
 240:/usr/include/c++/4.8/bits/stl_vector.h ****       using _Base::_M_get_Tp_allocator;
 241:/usr/include/c++/4.8/bits/stl_vector.h **** 
 242:/usr/include/c++/4.8/bits/stl_vector.h ****     public:
 243:/usr/include/c++/4.8/bits/stl_vector.h ****       // [23.2.4.1] construct/copy/destroy
 244:/usr/include/c++/4.8/bits/stl_vector.h ****       // (assign() and get_allocator() are also listed in this section)
 245:/usr/include/c++/4.8/bits/stl_vector.h ****       /**
 246:/usr/include/c++/4.8/bits/stl_vector.h ****        *  @brief  Default constructor creates no elements.
 247:/usr/include/c++/4.8/bits/stl_vector.h ****        */
 248:/usr/include/c++/4.8/bits/stl_vector.h ****       vector()
 249:/usr/include/c++/4.8/bits/stl_vector.h ****       : _Base() { }
 250:/usr/include/c++/4.8/bits/stl_vector.h **** 
 251:/usr/include/c++/4.8/bits/stl_vector.h ****       /**
 252:/usr/include/c++/4.8/bits/stl_vector.h ****        *  @brief  Creates a %vector with no elements.
 253:/usr/include/c++/4.8/bits/stl_vector.h ****        *  @param  __a  An allocator object.
 254:/usr/include/c++/4.8/bits/stl_vector.h ****        */
 255:/usr/include/c++/4.8/bits/stl_vector.h ****       explicit
 256:/usr/include/c++/4.8/bits/stl_vector.h ****       vector(const allocator_type& __a)
 257:/usr/include/c++/4.8/bits/stl_vector.h ****       : _Base(__a) { }
 258:/usr/include/c++/4.8/bits/stl_vector.h **** 
 259:/usr/include/c++/4.8/bits/stl_vector.h **** #if __cplusplus >= 201103L
 260:/usr/include/c++/4.8/bits/stl_vector.h ****       /**
 261:/usr/include/c++/4.8/bits/stl_vector.h ****        *  @brief  Creates a %vector with default constructed elements.
 262:/usr/include/c++/4.8/bits/stl_vector.h ****        *  @param  __n  The number of elements to initially create.
 263:/usr/include/c++/4.8/bits/stl_vector.h ****        *  @param  __a  An allocator.
 264:/usr/include/c++/4.8/bits/stl_vector.h ****        *
 265:/usr/include/c++/4.8/bits/stl_vector.h ****        *  This constructor fills the %vector with @a __n default
 266:/usr/include/c++/4.8/bits/stl_vector.h ****        *  constructed elements.
 267:/usr/include/c++/4.8/bits/stl_vector.h ****        */
 268:/usr/include/c++/4.8/bits/stl_vector.h ****       explicit
 269:/usr/include/c++/4.8/bits/stl_vector.h ****       vector(size_type __n, const allocator_type& __a = allocator_type())
 270:/usr/include/c++/4.8/bits/stl_vector.h ****       : _Base(__n, __a)
 271:/usr/include/c++/4.8/bits/stl_vector.h ****       { _M_default_initialize(__n); }
 272:/usr/include/c++/4.8/bits/stl_vector.h **** 
 273:/usr/include/c++/4.8/bits/stl_vector.h ****       /**
 274:/usr/include/c++/4.8/bits/stl_vector.h ****        *  @brief  Creates a %vector with copies of an exemplar element.
 275:/usr/include/c++/4.8/bits/stl_vector.h ****        *  @param  __n  The number of elements to initially create.
 276:/usr/include/c++/4.8/bits/stl_vector.h ****        *  @param  __value  An element to copy.
 277:/usr/include/c++/4.8/bits/stl_vector.h ****        *  @param  __a  An allocator.
 278:/usr/include/c++/4.8/bits/stl_vector.h ****        *
 279:/usr/include/c++/4.8/bits/stl_vector.h ****        *  This constructor fills the %vector with @a __n copies of @a __value.
 280:/usr/include/c++/4.8/bits/stl_vector.h ****        */
 281:/usr/include/c++/4.8/bits/stl_vector.h ****       vector(size_type __n, const value_type& __value,
 282:/usr/include/c++/4.8/bits/stl_vector.h **** 	     const allocator_type& __a = allocator_type())
 283:/usr/include/c++/4.8/bits/stl_vector.h ****       : _Base(__n, __a)
 284:/usr/include/c++/4.8/bits/stl_vector.h ****       { _M_fill_initialize(__n, __value); }
 285:/usr/include/c++/4.8/bits/stl_vector.h **** #else
 286:/usr/include/c++/4.8/bits/stl_vector.h ****       /**
 287:/usr/include/c++/4.8/bits/stl_vector.h ****        *  @brief  Creates a %vector with copies of an exemplar element.
 288:/usr/include/c++/4.8/bits/stl_vector.h ****        *  @param  __n  The number of elements to initially create.
 289:/usr/include/c++/4.8/bits/stl_vector.h ****        *  @param  __value  An element to copy.
 290:/usr/include/c++/4.8/bits/stl_vector.h ****        *  @param  __a  An allocator.
 291:/usr/include/c++/4.8/bits/stl_vector.h ****        *
 292:/usr/include/c++/4.8/bits/stl_vector.h ****        *  This constructor fills the %vector with @a __n copies of @a __value.
 293:/usr/include/c++/4.8/bits/stl_vector.h ****        */
 294:/usr/include/c++/4.8/bits/stl_vector.h ****       explicit
 295:/usr/include/c++/4.8/bits/stl_vector.h ****       vector(size_type __n, const value_type& __value = value_type(),
 296:/usr/include/c++/4.8/bits/stl_vector.h **** 	     const allocator_type& __a = allocator_type())
 297:/usr/include/c++/4.8/bits/stl_vector.h ****       : _Base(__n, __a)
 298:/usr/include/c++/4.8/bits/stl_vector.h ****       { _M_fill_initialize(__n, __value); }
 299:/usr/include/c++/4.8/bits/stl_vector.h **** #endif
 300:/usr/include/c++/4.8/bits/stl_vector.h **** 
 301:/usr/include/c++/4.8/bits/stl_vector.h ****       /**
 302:/usr/include/c++/4.8/bits/stl_vector.h ****        *  @brief  %Vector copy constructor.
 303:/usr/include/c++/4.8/bits/stl_vector.h ****        *  @param  __x  A %vector of identical element and allocator types.
 304:/usr/include/c++/4.8/bits/stl_vector.h ****        *
 305:/usr/include/c++/4.8/bits/stl_vector.h ****        *  The newly-created %vector uses a copy of the allocation
 306:/usr/include/c++/4.8/bits/stl_vector.h ****        *  object used by @a __x.  All the elements of @a __x are copied,
 307:/usr/include/c++/4.8/bits/stl_vector.h ****        *  but any extra memory in
 308:/usr/include/c++/4.8/bits/stl_vector.h ****        *  @a __x (for fast expansion) will not be copied.
 309:/usr/include/c++/4.8/bits/stl_vector.h ****        */
 310:/usr/include/c++/4.8/bits/stl_vector.h ****       vector(const vector& __x)
 311:/usr/include/c++/4.8/bits/stl_vector.h ****       : _Base(__x.size(),
 312:/usr/include/c++/4.8/bits/stl_vector.h ****         _Alloc_traits::_S_select_on_copy(__x._M_get_Tp_allocator()))
 313:/usr/include/c++/4.8/bits/stl_vector.h ****       { this->_M_impl._M_finish =
 314:/usr/include/c++/4.8/bits/stl_vector.h **** 	  std::__uninitialized_copy_a(__x.begin(), __x.end(),
 315:/usr/include/c++/4.8/bits/stl_vector.h **** 				      this->_M_impl._M_start,
 316:/usr/include/c++/4.8/bits/stl_vector.h **** 				      _M_get_Tp_allocator());
 317:/usr/include/c++/4.8/bits/stl_vector.h ****       }
 318:/usr/include/c++/4.8/bits/stl_vector.h **** 
 319:/usr/include/c++/4.8/bits/stl_vector.h **** #if __cplusplus >= 201103L
 320:/usr/include/c++/4.8/bits/stl_vector.h ****       /**
 321:/usr/include/c++/4.8/bits/stl_vector.h ****        *  @brief  %Vector move constructor.
 322:/usr/include/c++/4.8/bits/stl_vector.h ****        *  @param  __x  A %vector of identical element and allocator types.
 323:/usr/include/c++/4.8/bits/stl_vector.h ****        *
 324:/usr/include/c++/4.8/bits/stl_vector.h ****        *  The newly-created %vector contains the exact contents of @a __x.
 325:/usr/include/c++/4.8/bits/stl_vector.h ****        *  The contents of @a __x are a valid, but unspecified %vector.
 326:/usr/include/c++/4.8/bits/stl_vector.h ****        */
 327:/usr/include/c++/4.8/bits/stl_vector.h ****       vector(vector&& __x) noexcept
 328:/usr/include/c++/4.8/bits/stl_vector.h ****       : _Base(std::move(__x)) { }
 329:/usr/include/c++/4.8/bits/stl_vector.h **** 
 330:/usr/include/c++/4.8/bits/stl_vector.h ****       /// Copy constructor with alternative allocator
 331:/usr/include/c++/4.8/bits/stl_vector.h ****       vector(const vector& __x, const allocator_type& __a)
 332:/usr/include/c++/4.8/bits/stl_vector.h ****       : _Base(__x.size(), __a)
 333:/usr/include/c++/4.8/bits/stl_vector.h ****       { this->_M_impl._M_finish =
 334:/usr/include/c++/4.8/bits/stl_vector.h **** 	  std::__uninitialized_copy_a(__x.begin(), __x.end(),
 335:/usr/include/c++/4.8/bits/stl_vector.h **** 				      this->_M_impl._M_start,
 336:/usr/include/c++/4.8/bits/stl_vector.h **** 				      _M_get_Tp_allocator());
 337:/usr/include/c++/4.8/bits/stl_vector.h ****       }
 338:/usr/include/c++/4.8/bits/stl_vector.h **** 
 339:/usr/include/c++/4.8/bits/stl_vector.h ****       /// Move constructor with alternative allocator
 340:/usr/include/c++/4.8/bits/stl_vector.h ****       vector(vector&& __rv, const allocator_type& __m)
 341:/usr/include/c++/4.8/bits/stl_vector.h ****       : _Base(std::move(__rv), __m)
 342:/usr/include/c++/4.8/bits/stl_vector.h ****       {
 343:/usr/include/c++/4.8/bits/stl_vector.h **** 	if (__rv.get_allocator() != __m)
 344:/usr/include/c++/4.8/bits/stl_vector.h **** 	  {
 345:/usr/include/c++/4.8/bits/stl_vector.h **** 	    this->_M_impl._M_finish =
 346:/usr/include/c++/4.8/bits/stl_vector.h **** 	      std::__uninitialized_move_a(__rv.begin(), __rv.end(),
 347:/usr/include/c++/4.8/bits/stl_vector.h **** 					  this->_M_impl._M_start,
 348:/usr/include/c++/4.8/bits/stl_vector.h **** 					  _M_get_Tp_allocator());
 349:/usr/include/c++/4.8/bits/stl_vector.h **** 	    __rv.clear();
 350:/usr/include/c++/4.8/bits/stl_vector.h **** 	  }
 351:/usr/include/c++/4.8/bits/stl_vector.h ****       }
 352:/usr/include/c++/4.8/bits/stl_vector.h **** 
 353:/usr/include/c++/4.8/bits/stl_vector.h ****       /**
 354:/usr/include/c++/4.8/bits/stl_vector.h ****        *  @brief  Builds a %vector from an initializer list.
 355:/usr/include/c++/4.8/bits/stl_vector.h ****        *  @param  __l  An initializer_list.
 356:/usr/include/c++/4.8/bits/stl_vector.h ****        *  @param  __a  An allocator.
 357:/usr/include/c++/4.8/bits/stl_vector.h ****        *
 358:/usr/include/c++/4.8/bits/stl_vector.h ****        *  Create a %vector consisting of copies of the elements in the
 359:/usr/include/c++/4.8/bits/stl_vector.h ****        *  initializer_list @a __l.
 360:/usr/include/c++/4.8/bits/stl_vector.h ****        *
 361:/usr/include/c++/4.8/bits/stl_vector.h ****        *  This will call the element type's copy constructor N times
 362:/usr/include/c++/4.8/bits/stl_vector.h ****        *  (where N is @a __l.size()) and do no memory reallocation.
 363:/usr/include/c++/4.8/bits/stl_vector.h ****        */
 364:/usr/include/c++/4.8/bits/stl_vector.h ****       vector(initializer_list<value_type> __l,
 365:/usr/include/c++/4.8/bits/stl_vector.h **** 	     const allocator_type& __a = allocator_type())
 366:/usr/include/c++/4.8/bits/stl_vector.h ****       : _Base(__a)
 367:/usr/include/c++/4.8/bits/stl_vector.h ****       {
 368:/usr/include/c++/4.8/bits/stl_vector.h **** 	_M_range_initialize(__l.begin(), __l.end(),
 369:/usr/include/c++/4.8/bits/stl_vector.h **** 			    random_access_iterator_tag());
 370:/usr/include/c++/4.8/bits/stl_vector.h ****       }
 371:/usr/include/c++/4.8/bits/stl_vector.h **** #endif
 372:/usr/include/c++/4.8/bits/stl_vector.h **** 
 373:/usr/include/c++/4.8/bits/stl_vector.h ****       /**
 374:/usr/include/c++/4.8/bits/stl_vector.h ****        *  @brief  Builds a %vector from a range.
 375:/usr/include/c++/4.8/bits/stl_vector.h ****        *  @param  __first  An input iterator.
 376:/usr/include/c++/4.8/bits/stl_vector.h ****        *  @param  __last  An input iterator.
 377:/usr/include/c++/4.8/bits/stl_vector.h ****        *  @param  __a  An allocator.
 378:/usr/include/c++/4.8/bits/stl_vector.h ****        *
 379:/usr/include/c++/4.8/bits/stl_vector.h ****        *  Create a %vector consisting of copies of the elements from
 380:/usr/include/c++/4.8/bits/stl_vector.h ****        *  [first,last).
 381:/usr/include/c++/4.8/bits/stl_vector.h ****        *
 382:/usr/include/c++/4.8/bits/stl_vector.h ****        *  If the iterators are forward, bidirectional, or
 383:/usr/include/c++/4.8/bits/stl_vector.h ****        *  random-access, then this will call the elements' copy
 384:/usr/include/c++/4.8/bits/stl_vector.h ****        *  constructor N times (where N is distance(first,last)) and do
 385:/usr/include/c++/4.8/bits/stl_vector.h ****        *  no memory reallocation.  But if only input iterators are
 386:/usr/include/c++/4.8/bits/stl_vector.h ****        *  used, then this will do at most 2N calls to the copy
 387:/usr/include/c++/4.8/bits/stl_vector.h ****        *  constructor, and logN memory reallocations.
 388:/usr/include/c++/4.8/bits/stl_vector.h ****        */
 389:/usr/include/c++/4.8/bits/stl_vector.h **** #if __cplusplus >= 201103L
 390:/usr/include/c++/4.8/bits/stl_vector.h ****       template<typename _InputIterator,
 391:/usr/include/c++/4.8/bits/stl_vector.h **** 	       typename = std::_RequireInputIter<_InputIterator>>
 392:/usr/include/c++/4.8/bits/stl_vector.h ****         vector(_InputIterator __first, _InputIterator __last,
 393:/usr/include/c++/4.8/bits/stl_vector.h **** 	       const allocator_type& __a = allocator_type())
 394:/usr/include/c++/4.8/bits/stl_vector.h **** 	: _Base(__a)
 395:/usr/include/c++/4.8/bits/stl_vector.h ****         { _M_initialize_dispatch(__first, __last, __false_type()); }
 396:/usr/include/c++/4.8/bits/stl_vector.h **** #else
 397:/usr/include/c++/4.8/bits/stl_vector.h ****       template<typename _InputIterator>
 398:/usr/include/c++/4.8/bits/stl_vector.h ****         vector(_InputIterator __first, _InputIterator __last,
 399:/usr/include/c++/4.8/bits/stl_vector.h **** 	       const allocator_type& __a = allocator_type())
 400:/usr/include/c++/4.8/bits/stl_vector.h **** 	: _Base(__a)
 401:/usr/include/c++/4.8/bits/stl_vector.h ****         {
 402:/usr/include/c++/4.8/bits/stl_vector.h **** 	  // Check whether it's an integral type.  If so, it's not an iterator.
 403:/usr/include/c++/4.8/bits/stl_vector.h **** 	  typedef typename std::__is_integer<_InputIterator>::__type _Integral;
 404:/usr/include/c++/4.8/bits/stl_vector.h **** 	  _M_initialize_dispatch(__first, __last, _Integral());
 405:/usr/include/c++/4.8/bits/stl_vector.h **** 	}
 406:/usr/include/c++/4.8/bits/stl_vector.h **** #endif
 407:/usr/include/c++/4.8/bits/stl_vector.h **** 
 408:/usr/include/c++/4.8/bits/stl_vector.h ****       /**
 409:/usr/include/c++/4.8/bits/stl_vector.h ****        *  The dtor only erases the elements, and note that if the
 410:/usr/include/c++/4.8/bits/stl_vector.h ****        *  elements themselves are pointers, the pointed-to memory is
 411:/usr/include/c++/4.8/bits/stl_vector.h ****        *  not touched in any way.  Managing the pointer is the user's
 412:/usr/include/c++/4.8/bits/stl_vector.h ****        *  responsibility.
 413:/usr/include/c++/4.8/bits/stl_vector.h ****        */
 414:/usr/include/c++/4.8/bits/stl_vector.h ****       ~vector() _GLIBCXX_NOEXCEPT
 415:/usr/include/c++/4.8/bits/stl_vector.h ****       { std::_Destroy(this->_M_impl._M_start, this->_M_impl._M_finish,
 416:/usr/include/c++/4.8/bits/stl_vector.h **** 		      _M_get_Tp_allocator()); }
 417:/usr/include/c++/4.8/bits/stl_vector.h **** 
 418:/usr/include/c++/4.8/bits/stl_vector.h ****       /**
 419:/usr/include/c++/4.8/bits/stl_vector.h ****        *  @brief  %Vector assignment operator.
 420:/usr/include/c++/4.8/bits/stl_vector.h ****        *  @param  __x  A %vector of identical element and allocator types.
 421:/usr/include/c++/4.8/bits/stl_vector.h ****        *
 422:/usr/include/c++/4.8/bits/stl_vector.h ****        *  All the elements of @a __x are copied, but any extra memory in
 423:/usr/include/c++/4.8/bits/stl_vector.h ****        *  @a __x (for fast expansion) will not be copied.  Unlike the
 424:/usr/include/c++/4.8/bits/stl_vector.h ****        *  copy constructor, the allocator object is not copied.
 425:/usr/include/c++/4.8/bits/stl_vector.h ****        */
 426:/usr/include/c++/4.8/bits/stl_vector.h ****       vector&
 427:/usr/include/c++/4.8/bits/stl_vector.h ****       operator=(const vector& __x);
 428:/usr/include/c++/4.8/bits/stl_vector.h **** 
 429:/usr/include/c++/4.8/bits/stl_vector.h **** #if __cplusplus >= 201103L
 430:/usr/include/c++/4.8/bits/stl_vector.h ****       /**
 431:/usr/include/c++/4.8/bits/stl_vector.h ****        *  @brief  %Vector move assignment operator.
 432:/usr/include/c++/4.8/bits/stl_vector.h ****        *  @param  __x  A %vector of identical element and allocator types.
 433:/usr/include/c++/4.8/bits/stl_vector.h ****        *
 434:/usr/include/c++/4.8/bits/stl_vector.h ****        *  The contents of @a __x are moved into this %vector (without copying,
 435:/usr/include/c++/4.8/bits/stl_vector.h ****        *  if the allocators permit it).
 436:/usr/include/c++/4.8/bits/stl_vector.h ****        *  @a __x is a valid, but unspecified %vector.
 437:/usr/include/c++/4.8/bits/stl_vector.h ****        */
 438:/usr/include/c++/4.8/bits/stl_vector.h ****       vector&
 439:/usr/include/c++/4.8/bits/stl_vector.h ****       operator=(vector&& __x) noexcept(_Alloc_traits::_S_nothrow_move())
 440:/usr/include/c++/4.8/bits/stl_vector.h ****       {
 441:/usr/include/c++/4.8/bits/stl_vector.h ****         constexpr bool __move_storage =
 442:/usr/include/c++/4.8/bits/stl_vector.h ****           _Alloc_traits::_S_propagate_on_move_assign()
 443:/usr/include/c++/4.8/bits/stl_vector.h ****           || _Alloc_traits::_S_always_equal();
 444:/usr/include/c++/4.8/bits/stl_vector.h ****         _M_move_assign(std::move(__x),
 445:/usr/include/c++/4.8/bits/stl_vector.h ****                        integral_constant<bool, __move_storage>());
 446:/usr/include/c++/4.8/bits/stl_vector.h **** 	return *this;
 447:/usr/include/c++/4.8/bits/stl_vector.h ****       }
 448:/usr/include/c++/4.8/bits/stl_vector.h **** 
 449:/usr/include/c++/4.8/bits/stl_vector.h ****       /**
 450:/usr/include/c++/4.8/bits/stl_vector.h ****        *  @brief  %Vector list assignment operator.
 451:/usr/include/c++/4.8/bits/stl_vector.h ****        *  @param  __l  An initializer_list.
 452:/usr/include/c++/4.8/bits/stl_vector.h ****        *
 453:/usr/include/c++/4.8/bits/stl_vector.h ****        *  This function fills a %vector with copies of the elements in the
 454:/usr/include/c++/4.8/bits/stl_vector.h ****        *  initializer list @a __l.
 455:/usr/include/c++/4.8/bits/stl_vector.h ****        *
 456:/usr/include/c++/4.8/bits/stl_vector.h ****        *  Note that the assignment completely changes the %vector and
 457:/usr/include/c++/4.8/bits/stl_vector.h ****        *  that the resulting %vector's size is the same as the number
 458:/usr/include/c++/4.8/bits/stl_vector.h ****        *  of elements assigned.  Old data may be lost.
 459:/usr/include/c++/4.8/bits/stl_vector.h ****        */
 460:/usr/include/c++/4.8/bits/stl_vector.h ****       vector&
 461:/usr/include/c++/4.8/bits/stl_vector.h ****       operator=(initializer_list<value_type> __l)
 462:/usr/include/c++/4.8/bits/stl_vector.h ****       {
 463:/usr/include/c++/4.8/bits/stl_vector.h **** 	this->assign(__l.begin(), __l.end());
 464:/usr/include/c++/4.8/bits/stl_vector.h **** 	return *this;
 465:/usr/include/c++/4.8/bits/stl_vector.h ****       }
 466:/usr/include/c++/4.8/bits/stl_vector.h **** #endif
 467:/usr/include/c++/4.8/bits/stl_vector.h **** 
 468:/usr/include/c++/4.8/bits/stl_vector.h ****       /**
 469:/usr/include/c++/4.8/bits/stl_vector.h ****        *  @brief  Assigns a given value to a %vector.
 470:/usr/include/c++/4.8/bits/stl_vector.h ****        *  @param  __n  Number of elements to be assigned.
 471:/usr/include/c++/4.8/bits/stl_vector.h ****        *  @param  __val  Value to be assigned.
 472:/usr/include/c++/4.8/bits/stl_vector.h ****        *
 473:/usr/include/c++/4.8/bits/stl_vector.h ****        *  This function fills a %vector with @a __n copies of the given
 474:/usr/include/c++/4.8/bits/stl_vector.h ****        *  value.  Note that the assignment completely changes the
 475:/usr/include/c++/4.8/bits/stl_vector.h ****        *  %vector and that the resulting %vector's size is the same as
 476:/usr/include/c++/4.8/bits/stl_vector.h ****        *  the number of elements assigned.  Old data may be lost.
 477:/usr/include/c++/4.8/bits/stl_vector.h ****        */
 478:/usr/include/c++/4.8/bits/stl_vector.h ****       void
 479:/usr/include/c++/4.8/bits/stl_vector.h ****       assign(size_type __n, const value_type& __val)
 480:/usr/include/c++/4.8/bits/stl_vector.h ****       { _M_fill_assign(__n, __val); }
 481:/usr/include/c++/4.8/bits/stl_vector.h **** 
 482:/usr/include/c++/4.8/bits/stl_vector.h ****       /**
 483:/usr/include/c++/4.8/bits/stl_vector.h ****        *  @brief  Assigns a range to a %vector.
 484:/usr/include/c++/4.8/bits/stl_vector.h ****        *  @param  __first  An input iterator.
 485:/usr/include/c++/4.8/bits/stl_vector.h ****        *  @param  __last   An input iterator.
 486:/usr/include/c++/4.8/bits/stl_vector.h ****        *
 487:/usr/include/c++/4.8/bits/stl_vector.h ****        *  This function fills a %vector with copies of the elements in the
 488:/usr/include/c++/4.8/bits/stl_vector.h ****        *  range [__first,__last).
 489:/usr/include/c++/4.8/bits/stl_vector.h ****        *
 490:/usr/include/c++/4.8/bits/stl_vector.h ****        *  Note that the assignment completely changes the %vector and
 491:/usr/include/c++/4.8/bits/stl_vector.h ****        *  that the resulting %vector's size is the same as the number
 492:/usr/include/c++/4.8/bits/stl_vector.h ****        *  of elements assigned.  Old data may be lost.
 493:/usr/include/c++/4.8/bits/stl_vector.h ****        */
 494:/usr/include/c++/4.8/bits/stl_vector.h **** #if __cplusplus >= 201103L
 495:/usr/include/c++/4.8/bits/stl_vector.h ****       template<typename _InputIterator,
 496:/usr/include/c++/4.8/bits/stl_vector.h **** 	       typename = std::_RequireInputIter<_InputIterator>>
 497:/usr/include/c++/4.8/bits/stl_vector.h ****         void
 498:/usr/include/c++/4.8/bits/stl_vector.h ****         assign(_InputIterator __first, _InputIterator __last)
 499:/usr/include/c++/4.8/bits/stl_vector.h ****         { _M_assign_dispatch(__first, __last, __false_type()); }
 500:/usr/include/c++/4.8/bits/stl_vector.h **** #else
 501:/usr/include/c++/4.8/bits/stl_vector.h ****       template<typename _InputIterator>
 502:/usr/include/c++/4.8/bits/stl_vector.h ****         void
 503:/usr/include/c++/4.8/bits/stl_vector.h ****         assign(_InputIterator __first, _InputIterator __last)
 504:/usr/include/c++/4.8/bits/stl_vector.h ****         {
 505:/usr/include/c++/4.8/bits/stl_vector.h **** 	  // Check whether it's an integral type.  If so, it's not an iterator.
 506:/usr/include/c++/4.8/bits/stl_vector.h **** 	  typedef typename std::__is_integer<_InputIterator>::__type _Integral;
 507:/usr/include/c++/4.8/bits/stl_vector.h **** 	  _M_assign_dispatch(__first, __last, _Integral());
 508:/usr/include/c++/4.8/bits/stl_vector.h **** 	}
 509:/usr/include/c++/4.8/bits/stl_vector.h **** #endif
 510:/usr/include/c++/4.8/bits/stl_vector.h **** 
 511:/usr/include/c++/4.8/bits/stl_vector.h **** #if __cplusplus >= 201103L
 512:/usr/include/c++/4.8/bits/stl_vector.h ****       /**
 513:/usr/include/c++/4.8/bits/stl_vector.h ****        *  @brief  Assigns an initializer list to a %vector.
 514:/usr/include/c++/4.8/bits/stl_vector.h ****        *  @param  __l  An initializer_list.
 515:/usr/include/c++/4.8/bits/stl_vector.h ****        *
 516:/usr/include/c++/4.8/bits/stl_vector.h ****        *  This function fills a %vector with copies of the elements in the
 517:/usr/include/c++/4.8/bits/stl_vector.h ****        *  initializer list @a __l.
 518:/usr/include/c++/4.8/bits/stl_vector.h ****        *
 519:/usr/include/c++/4.8/bits/stl_vector.h ****        *  Note that the assignment completely changes the %vector and
 520:/usr/include/c++/4.8/bits/stl_vector.h ****        *  that the resulting %vector's size is the same as the number
 521:/usr/include/c++/4.8/bits/stl_vector.h ****        *  of elements assigned.  Old data may be lost.
 522:/usr/include/c++/4.8/bits/stl_vector.h ****        */
 523:/usr/include/c++/4.8/bits/stl_vector.h ****       void
 524:/usr/include/c++/4.8/bits/stl_vector.h ****       assign(initializer_list<value_type> __l)
 525:/usr/include/c++/4.8/bits/stl_vector.h ****       { this->assign(__l.begin(), __l.end()); }
 526:/usr/include/c++/4.8/bits/stl_vector.h **** #endif
 527:/usr/include/c++/4.8/bits/stl_vector.h **** 
 528:/usr/include/c++/4.8/bits/stl_vector.h ****       /// Get a copy of the memory allocation object.
 529:/usr/include/c++/4.8/bits/stl_vector.h ****       using _Base::get_allocator;
 530:/usr/include/c++/4.8/bits/stl_vector.h **** 
 531:/usr/include/c++/4.8/bits/stl_vector.h ****       // iterators
 532:/usr/include/c++/4.8/bits/stl_vector.h ****       /**
 533:/usr/include/c++/4.8/bits/stl_vector.h ****        *  Returns a read/write iterator that points to the first
 534:/usr/include/c++/4.8/bits/stl_vector.h ****        *  element in the %vector.  Iteration is done in ordinary
 535:/usr/include/c++/4.8/bits/stl_vector.h ****        *  element order.
 536:/usr/include/c++/4.8/bits/stl_vector.h ****        */
 537:/usr/include/c++/4.8/bits/stl_vector.h ****       iterator
 538:/usr/include/c++/4.8/bits/stl_vector.h ****       begin() _GLIBCXX_NOEXCEPT
 539:/usr/include/c++/4.8/bits/stl_vector.h ****       { return iterator(this->_M_impl._M_start); }
 540:/usr/include/c++/4.8/bits/stl_vector.h **** 
 541:/usr/include/c++/4.8/bits/stl_vector.h ****       /**
 542:/usr/include/c++/4.8/bits/stl_vector.h ****        *  Returns a read-only (constant) iterator that points to the
 543:/usr/include/c++/4.8/bits/stl_vector.h ****        *  first element in the %vector.  Iteration is done in ordinary
 544:/usr/include/c++/4.8/bits/stl_vector.h ****        *  element order.
 545:/usr/include/c++/4.8/bits/stl_vector.h ****        */
 546:/usr/include/c++/4.8/bits/stl_vector.h ****       const_iterator
 547:/usr/include/c++/4.8/bits/stl_vector.h ****       begin() const _GLIBCXX_NOEXCEPT
 548:/usr/include/c++/4.8/bits/stl_vector.h ****       { return const_iterator(this->_M_impl._M_start); }
 549:/usr/include/c++/4.8/bits/stl_vector.h **** 
 550:/usr/include/c++/4.8/bits/stl_vector.h ****       /**
 551:/usr/include/c++/4.8/bits/stl_vector.h ****        *  Returns a read/write iterator that points one past the last
 552:/usr/include/c++/4.8/bits/stl_vector.h ****        *  element in the %vector.  Iteration is done in ordinary
 553:/usr/include/c++/4.8/bits/stl_vector.h ****        *  element order.
 554:/usr/include/c++/4.8/bits/stl_vector.h ****        */
 555:/usr/include/c++/4.8/bits/stl_vector.h ****       iterator
 556:/usr/include/c++/4.8/bits/stl_vector.h ****       end() _GLIBCXX_NOEXCEPT
 557:/usr/include/c++/4.8/bits/stl_vector.h ****       { return iterator(this->_M_impl._M_finish); }
 558:/usr/include/c++/4.8/bits/stl_vector.h **** 
 559:/usr/include/c++/4.8/bits/stl_vector.h ****       /**
 560:/usr/include/c++/4.8/bits/stl_vector.h ****        *  Returns a read-only (constant) iterator that points one past
 561:/usr/include/c++/4.8/bits/stl_vector.h ****        *  the last element in the %vector.  Iteration is done in
 562:/usr/include/c++/4.8/bits/stl_vector.h ****        *  ordinary element order.
 563:/usr/include/c++/4.8/bits/stl_vector.h ****        */
 564:/usr/include/c++/4.8/bits/stl_vector.h ****       const_iterator
 565:/usr/include/c++/4.8/bits/stl_vector.h ****       end() const _GLIBCXX_NOEXCEPT
 566:/usr/include/c++/4.8/bits/stl_vector.h ****       { return const_iterator(this->_M_impl._M_finish); }
 567:/usr/include/c++/4.8/bits/stl_vector.h **** 
 568:/usr/include/c++/4.8/bits/stl_vector.h ****       /**
 569:/usr/include/c++/4.8/bits/stl_vector.h ****        *  Returns a read/write reverse iterator that points to the
 570:/usr/include/c++/4.8/bits/stl_vector.h ****        *  last element in the %vector.  Iteration is done in reverse
 571:/usr/include/c++/4.8/bits/stl_vector.h ****        *  element order.
 572:/usr/include/c++/4.8/bits/stl_vector.h ****        */
 573:/usr/include/c++/4.8/bits/stl_vector.h ****       reverse_iterator
 574:/usr/include/c++/4.8/bits/stl_vector.h ****       rbegin() _GLIBCXX_NOEXCEPT
 575:/usr/include/c++/4.8/bits/stl_vector.h ****       { return reverse_iterator(end()); }
 576:/usr/include/c++/4.8/bits/stl_vector.h **** 
 577:/usr/include/c++/4.8/bits/stl_vector.h ****       /**
 578:/usr/include/c++/4.8/bits/stl_vector.h ****        *  Returns a read-only (constant) reverse iterator that points
 579:/usr/include/c++/4.8/bits/stl_vector.h ****        *  to the last element in the %vector.  Iteration is done in
 580:/usr/include/c++/4.8/bits/stl_vector.h ****        *  reverse element order.
 581:/usr/include/c++/4.8/bits/stl_vector.h ****        */
 582:/usr/include/c++/4.8/bits/stl_vector.h ****       const_reverse_iterator
 583:/usr/include/c++/4.8/bits/stl_vector.h ****       rbegin() const _GLIBCXX_NOEXCEPT
 584:/usr/include/c++/4.8/bits/stl_vector.h ****       { return const_reverse_iterator(end()); }
 585:/usr/include/c++/4.8/bits/stl_vector.h **** 
 586:/usr/include/c++/4.8/bits/stl_vector.h ****       /**
 587:/usr/include/c++/4.8/bits/stl_vector.h ****        *  Returns a read/write reverse iterator that points to one
 588:/usr/include/c++/4.8/bits/stl_vector.h ****        *  before the first element in the %vector.  Iteration is done
 589:/usr/include/c++/4.8/bits/stl_vector.h ****        *  in reverse element order.
 590:/usr/include/c++/4.8/bits/stl_vector.h ****        */
 591:/usr/include/c++/4.8/bits/stl_vector.h ****       reverse_iterator
 592:/usr/include/c++/4.8/bits/stl_vector.h ****       rend() _GLIBCXX_NOEXCEPT
 593:/usr/include/c++/4.8/bits/stl_vector.h ****       { return reverse_iterator(begin()); }
 594:/usr/include/c++/4.8/bits/stl_vector.h **** 
 595:/usr/include/c++/4.8/bits/stl_vector.h ****       /**
 596:/usr/include/c++/4.8/bits/stl_vector.h ****        *  Returns a read-only (constant) reverse iterator that points
 597:/usr/include/c++/4.8/bits/stl_vector.h ****        *  to one before the first element in the %vector.  Iteration
 598:/usr/include/c++/4.8/bits/stl_vector.h ****        *  is done in reverse element order.
 599:/usr/include/c++/4.8/bits/stl_vector.h ****        */
 600:/usr/include/c++/4.8/bits/stl_vector.h ****       const_reverse_iterator
 601:/usr/include/c++/4.8/bits/stl_vector.h ****       rend() const _GLIBCXX_NOEXCEPT
 602:/usr/include/c++/4.8/bits/stl_vector.h ****       { return const_reverse_iterator(begin()); }
 603:/usr/include/c++/4.8/bits/stl_vector.h **** 
 604:/usr/include/c++/4.8/bits/stl_vector.h **** #if __cplusplus >= 201103L
 605:/usr/include/c++/4.8/bits/stl_vector.h ****       /**
 606:/usr/include/c++/4.8/bits/stl_vector.h ****        *  Returns a read-only (constant) iterator that points to the
 607:/usr/include/c++/4.8/bits/stl_vector.h ****        *  first element in the %vector.  Iteration is done in ordinary
 608:/usr/include/c++/4.8/bits/stl_vector.h ****        *  element order.
 609:/usr/include/c++/4.8/bits/stl_vector.h ****        */
 610:/usr/include/c++/4.8/bits/stl_vector.h ****       const_iterator
 611:/usr/include/c++/4.8/bits/stl_vector.h ****       cbegin() const noexcept
 612:/usr/include/c++/4.8/bits/stl_vector.h ****       { return const_iterator(this->_M_impl._M_start); }
 613:/usr/include/c++/4.8/bits/stl_vector.h **** 
 614:/usr/include/c++/4.8/bits/stl_vector.h ****       /**
 615:/usr/include/c++/4.8/bits/stl_vector.h ****        *  Returns a read-only (constant) iterator that points one past
 616:/usr/include/c++/4.8/bits/stl_vector.h ****        *  the last element in the %vector.  Iteration is done in
 617:/usr/include/c++/4.8/bits/stl_vector.h ****        *  ordinary element order.
 618:/usr/include/c++/4.8/bits/stl_vector.h ****        */
 619:/usr/include/c++/4.8/bits/stl_vector.h ****       const_iterator
 620:/usr/include/c++/4.8/bits/stl_vector.h ****       cend() const noexcept
 621:/usr/include/c++/4.8/bits/stl_vector.h ****       { return const_iterator(this->_M_impl._M_finish); }
 622:/usr/include/c++/4.8/bits/stl_vector.h **** 
 623:/usr/include/c++/4.8/bits/stl_vector.h ****       /**
 624:/usr/include/c++/4.8/bits/stl_vector.h ****        *  Returns a read-only (constant) reverse iterator that points
 625:/usr/include/c++/4.8/bits/stl_vector.h ****        *  to the last element in the %vector.  Iteration is done in
 626:/usr/include/c++/4.8/bits/stl_vector.h ****        *  reverse element order.
 627:/usr/include/c++/4.8/bits/stl_vector.h ****        */
 628:/usr/include/c++/4.8/bits/stl_vector.h ****       const_reverse_iterator
 629:/usr/include/c++/4.8/bits/stl_vector.h ****       crbegin() const noexcept
 630:/usr/include/c++/4.8/bits/stl_vector.h ****       { return const_reverse_iterator(end()); }
 631:/usr/include/c++/4.8/bits/stl_vector.h **** 
 632:/usr/include/c++/4.8/bits/stl_vector.h ****       /**
 633:/usr/include/c++/4.8/bits/stl_vector.h ****        *  Returns a read-only (constant) reverse iterator that points
 634:/usr/include/c++/4.8/bits/stl_vector.h ****        *  to one before the first element in the %vector.  Iteration
 635:/usr/include/c++/4.8/bits/stl_vector.h ****        *  is done in reverse element order.
 636:/usr/include/c++/4.8/bits/stl_vector.h ****        */
 637:/usr/include/c++/4.8/bits/stl_vector.h ****       const_reverse_iterator
 638:/usr/include/c++/4.8/bits/stl_vector.h ****       crend() const noexcept
 639:/usr/include/c++/4.8/bits/stl_vector.h ****       { return const_reverse_iterator(begin()); }
 640:/usr/include/c++/4.8/bits/stl_vector.h **** #endif
 641:/usr/include/c++/4.8/bits/stl_vector.h **** 
 642:/usr/include/c++/4.8/bits/stl_vector.h ****       // [23.2.4.2] capacity
 643:/usr/include/c++/4.8/bits/stl_vector.h ****       /**  Returns the number of elements in the %vector.  */
 644:/usr/include/c++/4.8/bits/stl_vector.h ****       size_type
 645:/usr/include/c++/4.8/bits/stl_vector.h ****       size() const _GLIBCXX_NOEXCEPT
 646:/usr/include/c++/4.8/bits/stl_vector.h ****       { return size_type(this->_M_impl._M_finish - this->_M_impl._M_start); }
  50              		.loc 3 646 0
  51 0013 488B5708 		movq	8(%rdi), %rdx
  52 0017 482B17   		subq	(%rdi), %rdx
  53 001a 48C1FA02 		sarq	$2, %rdx
  54              	.LVL1:
  55              	.LBE295:
  56              	.LBE294:
  57              	.LBB296:
  58              	.LBB293:
  59              		.loc 2 221 0
  60 001e 4885D2   		testq	%rdx, %rdx
  61 0021 757D     		jne	.L21
  62              	.L3:
  63              	.LBE293:
  64              	.LBE296:
  65              	.LBE297:
  66              	.LBE299:
  67              	.LBB300:
  68              	.LBB301:
  69              	.LBB302:
  70              		.file 4 "/usr/include/c++/4.8/ext/new_allocator.h"
   1:/usr/include/c++/4.8/ext/new_allocator.h **** // Allocator that wraps operator new -*- C++ -*-
   2:/usr/include/c++/4.8/ext/new_allocator.h **** 
   3:/usr/include/c++/4.8/ext/new_allocator.h **** // Copyright (C) 2001-2013 Free Software Foundation, Inc.
   4:/usr/include/c++/4.8/ext/new_allocator.h **** //
   5:/usr/include/c++/4.8/ext/new_allocator.h **** // This file is part of the GNU ISO C++ Library.  This library is free
   6:/usr/include/c++/4.8/ext/new_allocator.h **** // software; you can redistribute it and/or modify it under the
   7:/usr/include/c++/4.8/ext/new_allocator.h **** // terms of the GNU General Public License as published by the
   8:/usr/include/c++/4.8/ext/new_allocator.h **** // Free Software Foundation; either version 3, or (at your option)
   9:/usr/include/c++/4.8/ext/new_allocator.h **** // any later version.
  10:/usr/include/c++/4.8/ext/new_allocator.h **** 
  11:/usr/include/c++/4.8/ext/new_allocator.h **** // This library is distributed in the hope that it will be useful,
  12:/usr/include/c++/4.8/ext/new_allocator.h **** // but WITHOUT ANY WARRANTY; without even the implied warranty of
  13:/usr/include/c++/4.8/ext/new_allocator.h **** // MERCHANTABILITY or FITNESS FOR A PARTICULAR PURPOSE.  See the
  14:/usr/include/c++/4.8/ext/new_allocator.h **** // GNU General Public License for more details.
  15:/usr/include/c++/4.8/ext/new_allocator.h **** 
  16:/usr/include/c++/4.8/ext/new_allocator.h **** // Under Section 7 of GPL version 3, you are granted additional
  17:/usr/include/c++/4.8/ext/new_allocator.h **** // permissions described in the GCC Runtime Library Exception, version
  18:/usr/include/c++/4.8/ext/new_allocator.h **** // 3.1, as published by the Free Software Foundation.
  19:/usr/include/c++/4.8/ext/new_allocator.h **** 
  20:/usr/include/c++/4.8/ext/new_allocator.h **** // You should have received a copy of the GNU General Public License and
  21:/usr/include/c++/4.8/ext/new_allocator.h **** // a copy of the GCC Runtime Library Exception along with this program;
  22:/usr/include/c++/4.8/ext/new_allocator.h **** // see the files COPYING3 and COPYING.RUNTIME respectively.  If not, see
  23:/usr/include/c++/4.8/ext/new_allocator.h **** // <http://www.gnu.org/licenses/>.
  24:/usr/include/c++/4.8/ext/new_allocator.h **** 
  25:/usr/include/c++/4.8/ext/new_allocator.h **** /** @file ext/new_allocator.h
  26:/usr/include/c++/4.8/ext/new_allocator.h ****  *  This file is a GNU extension to the Standard C++ Library.
  27:/usr/include/c++/4.8/ext/new_allocator.h ****  */
  28:/usr/include/c++/4.8/ext/new_allocator.h **** 
  29:/usr/include/c++/4.8/ext/new_allocator.h **** #ifndef _NEW_ALLOCATOR_H
  30:/usr/include/c++/4.8/ext/new_allocator.h **** #define _NEW_ALLOCATOR_H 1
  31:/usr/include/c++/4.8/ext/new_allocator.h **** 
  32:/usr/include/c++/4.8/ext/new_allocator.h **** #include <bits/c++config.h>
  33:/usr/include/c++/4.8/ext/new_allocator.h **** #include <new>
  34:/usr/include/c++/4.8/ext/new_allocator.h **** #include <bits/functexcept.h>
  35:/usr/include/c++/4.8/ext/new_allocator.h **** #include <bits/move.h>
  36:/usr/include/c++/4.8/ext/new_allocator.h **** #if __cplusplus >= 201103L
  37:/usr/include/c++/4.8/ext/new_allocator.h **** #include <type_traits>
  38:/usr/include/c++/4.8/ext/new_allocator.h **** #endif
  39:/usr/include/c++/4.8/ext/new_allocator.h **** 
  40:/usr/include/c++/4.8/ext/new_allocator.h **** namespace __gnu_cxx _GLIBCXX_VISIBILITY(default)
  41:/usr/include/c++/4.8/ext/new_allocator.h **** {
  42:/usr/include/c++/4.8/ext/new_allocator.h **** _GLIBCXX_BEGIN_NAMESPACE_VERSION
  43:/usr/include/c++/4.8/ext/new_allocator.h **** 
  44:/usr/include/c++/4.8/ext/new_allocator.h ****   using std::size_t;
  45:/usr/include/c++/4.8/ext/new_allocator.h ****   using std::ptrdiff_t;
  46:/usr/include/c++/4.8/ext/new_allocator.h **** 
  47:/usr/include/c++/4.8/ext/new_allocator.h ****   /**
  48:/usr/include/c++/4.8/ext/new_allocator.h ****    *  @brief  An allocator that uses global new, as per [20.4].
  49:/usr/include/c++/4.8/ext/new_allocator.h ****    *  @ingroup allocators
  50:/usr/include/c++/4.8/ext/new_allocator.h ****    *
  51:/usr/include/c++/4.8/ext/new_allocator.h ****    *  This is precisely the allocator defined in the C++ Standard. 
  52:/usr/include/c++/4.8/ext/new_allocator.h ****    *    - all allocation calls operator new
  53:/usr/include/c++/4.8/ext/new_allocator.h ****    *    - all deallocation calls operator delete
  54:/usr/include/c++/4.8/ext/new_allocator.h ****    *
  55:/usr/include/c++/4.8/ext/new_allocator.h ****    *  @tparam  _Tp  Type of allocated object.
  56:/usr/include/c++/4.8/ext/new_allocator.h ****    */
  57:/usr/include/c++/4.8/ext/new_allocator.h ****   template<typename _Tp>
  58:/usr/include/c++/4.8/ext/new_allocator.h ****     class new_allocator
  59:/usr/include/c++/4.8/ext/new_allocator.h ****     {
  60:/usr/include/c++/4.8/ext/new_allocator.h ****     public:
  61:/usr/include/c++/4.8/ext/new_allocator.h ****       typedef size_t     size_type;
  62:/usr/include/c++/4.8/ext/new_allocator.h ****       typedef ptrdiff_t  difference_type;
  63:/usr/include/c++/4.8/ext/new_allocator.h ****       typedef _Tp*       pointer;
  64:/usr/include/c++/4.8/ext/new_allocator.h ****       typedef const _Tp* const_pointer;
  65:/usr/include/c++/4.8/ext/new_allocator.h ****       typedef _Tp&       reference;
  66:/usr/include/c++/4.8/ext/new_allocator.h ****       typedef const _Tp& const_reference;
  67:/usr/include/c++/4.8/ext/new_allocator.h ****       typedef _Tp        value_type;
  68:/usr/include/c++/4.8/ext/new_allocator.h **** 
  69:/usr/include/c++/4.8/ext/new_allocator.h ****       template<typename _Tp1>
  70:/usr/include/c++/4.8/ext/new_allocator.h ****         struct rebind
  71:/usr/include/c++/4.8/ext/new_allocator.h ****         { typedef new_allocator<_Tp1> other; };
  72:/usr/include/c++/4.8/ext/new_allocator.h **** 
  73:/usr/include/c++/4.8/ext/new_allocator.h **** #if __cplusplus >= 201103L
  74:/usr/include/c++/4.8/ext/new_allocator.h ****       // _GLIBCXX_RESOLVE_LIB_DEFECTS
  75:/usr/include/c++/4.8/ext/new_allocator.h ****       // 2103. propagate_on_container_move_assignment
  76:/usr/include/c++/4.8/ext/new_allocator.h ****       typedef std::true_type propagate_on_container_move_assignment;
  77:/usr/include/c++/4.8/ext/new_allocator.h **** #endif
  78:/usr/include/c++/4.8/ext/new_allocator.h **** 
  79:/usr/include/c++/4.8/ext/new_allocator.h ****       new_allocator() _GLIBCXX_USE_NOEXCEPT { }
  80:/usr/include/c++/4.8/ext/new_allocator.h **** 
  81:/usr/include/c++/4.8/ext/new_allocator.h ****       new_allocator(const new_allocator&) _GLIBCXX_USE_NOEXCEPT { }
  82:/usr/include/c++/4.8/ext/new_allocator.h **** 
  83:/usr/include/c++/4.8/ext/new_allocator.h ****       template<typename _Tp1>
  84:/usr/include/c++/4.8/ext/new_allocator.h ****         new_allocator(const new_allocator<_Tp1>&) _GLIBCXX_USE_NOEXCEPT { }
  85:/usr/include/c++/4.8/ext/new_allocator.h **** 
  86:/usr/include/c++/4.8/ext/new_allocator.h ****       ~new_allocator() _GLIBCXX_USE_NOEXCEPT { }
  87:/usr/include/c++/4.8/ext/new_allocator.h **** 
  88:/usr/include/c++/4.8/ext/new_allocator.h ****       pointer
  89:/usr/include/c++/4.8/ext/new_allocator.h ****       address(reference __x) const _GLIBCXX_NOEXCEPT
  90:/usr/include/c++/4.8/ext/new_allocator.h ****       { return std::__addressof(__x); }
  91:/usr/include/c++/4.8/ext/new_allocator.h **** 
  92:/usr/include/c++/4.8/ext/new_allocator.h ****       const_pointer
  93:/usr/include/c++/4.8/ext/new_allocator.h ****       address(const_reference __x) const _GLIBCXX_NOEXCEPT
  94:/usr/include/c++/4.8/ext/new_allocator.h ****       { return std::__addressof(__x); }
  95:/usr/include/c++/4.8/ext/new_allocator.h **** 
  96:/usr/include/c++/4.8/ext/new_allocator.h ****       // NB: __n is permitted to be 0.  The C++ standard says nothing
  97:/usr/include/c++/4.8/ext/new_allocator.h ****       // about what the return value is when __n == 0.
  98:/usr/include/c++/4.8/ext/new_allocator.h ****       pointer
  99:/usr/include/c++/4.8/ext/new_allocator.h ****       allocate(size_type __n, const void* = 0)
 100:/usr/include/c++/4.8/ext/new_allocator.h ****       { 
 101:/usr/include/c++/4.8/ext/new_allocator.h **** 	if (__n > this->max_size())
 102:/usr/include/c++/4.8/ext/new_allocator.h **** 	  std::__throw_bad_alloc();
 103:/usr/include/c++/4.8/ext/new_allocator.h **** 
 104:/usr/include/c++/4.8/ext/new_allocator.h **** 	return static_cast<_Tp*>(::operator new(__n * sizeof(_Tp)));
  71              		.loc 4 104 0
  72 0023 4C89E7   		movq	%r12, %rdi
  73              	.LVL2:
  74 0026 48897424 		movq	%rsi, 8(%rsp)
  74      08
  75              	.LVL3:
  76 002b E8000000 		call	_Znwm
  76      00
  77              	.LVL4:
  78 0030 488B0B   		movq	(%rbx), %rcx
  79 0033 4889C5   		movq	%rax, %rbp
  80 0036 488B4308 		movq	8(%rbx), %rax
  81              	.LBE302:
  82              	.LBE301:
  83              	.LBE300:
  84              	.LBB303:
  85              	.LBB304:
  86              	.LBB305:
  87              	.LBB306:
 105:/usr/include/c++/4.8/ext/new_allocator.h ****       }
 106:/usr/include/c++/4.8/ext/new_allocator.h **** 
 107:/usr/include/c++/4.8/ext/new_allocator.h ****       // __p is not permitted to be a null pointer.
 108:/usr/include/c++/4.8/ext/new_allocator.h ****       void
 109:/usr/include/c++/4.8/ext/new_allocator.h ****       deallocate(pointer __p, size_type)
 110:/usr/include/c++/4.8/ext/new_allocator.h ****       { ::operator delete(__p); }
 111:/usr/include/c++/4.8/ext/new_allocator.h **** 
 112:/usr/include/c++/4.8/ext/new_allocator.h ****       size_type
 113:/usr/include/c++/4.8/ext/new_allocator.h ****       max_size() const _GLIBCXX_USE_NOEXCEPT
 114:/usr/include/c++/4.8/ext/new_allocator.h ****       { return size_t(-1) / sizeof(_Tp); }
 115:/usr/include/c++/4.8/ext/new_allocator.h **** 
 116:/usr/include/c++/4.8/ext/new_allocator.h **** #if __cplusplus >= 201103L
 117:/usr/include/c++/4.8/ext/new_allocator.h ****       template<typename _Up, typename... _Args>
 118:/usr/include/c++/4.8/ext/new_allocator.h ****         void
 119:/usr/include/c++/4.8/ext/new_allocator.h ****         construct(_Up* __p, _Args&&... __args)
 120:/usr/include/c++/4.8/ext/new_allocator.h **** 	{ ::new((void *)__p) _Up(std::forward<_Args>(__args)...); }
  88              		.loc 4 120 0
  89 003a 488B7424 		movq	8(%rsp), %rsi
  89      08
  90 003f 4989ED   		movq	%rbp, %r13
  91 0042 4829C8   		subq	%rcx, %rax
  92 0045 48C1F802 		sarq	$2, %rax
  93              	.LVL5:
  94 0049 8B36     		movl	(%rsi), %esi
  95              	.LVL6:
  96              	.LBE306:
  97              	.LBE305:
  98              	.LBE304:
  99              	.LBE303:
 400:/usr/include/c++/4.8/bits/vector.tcc ****       _M_emplace_back_aux(_Args&&... __args)
 401:/usr/include/c++/4.8/bits/vector.tcc ****       {
 402:/usr/include/c++/4.8/bits/vector.tcc **** 	const size_type __len =
 403:/usr/include/c++/4.8/bits/vector.tcc **** 	  _M_check_len(size_type(1), "vector::_M_emplace_back_aux");
 404:/usr/include/c++/4.8/bits/vector.tcc **** 	pointer __new_start(this->_M_allocate(__len));
 405:/usr/include/c++/4.8/bits/vector.tcc **** 	pointer __new_finish(__new_start);
 406:/usr/include/c++/4.8/bits/vector.tcc **** 	__try
 407:/usr/include/c++/4.8/bits/vector.tcc **** 	  {
 408:/usr/include/c++/4.8/bits/vector.tcc **** 	    _Alloc_traits::construct(this->_M_impl, __new_start + size(),
 409:/usr/include/c++/4.8/bits/vector.tcc **** 				     std::forward<_Args>(__args)...);
 100              		.loc 1 409 0
 101 004b 488D1485 		leaq	0(,%rax,4), %rdx
 101      00000000 
 102              	.LVL7:
 103              	.LBB310:
 104              	.LBB309:
 105              	.LBB308:
 106              	.LBB307:
 107              		.loc 4 120 0
 108 0053 4901D5   		addq	%rdx, %r13
 109              	.LVL8:
 110 0056 7404     		je	.L4
 111 0058 41897500 		movl	%esi, 0(%r13)
 112              	.L4:
 113              	.LVL9:
 114              	.LBE307:
 115              	.LBE308:
 116              	.LBE309:
 117              	.LBE310:
 118              	.LBB311:
 119              	.LBB312:
 120              	.LBB313:
 121              	.LBB314:
 122              	.LBB315:
 123              	.LBB316:
 124              	.LBB317:
 125              	.LBB318:
 126              	.LBB319:
 127              	.LBB320:
 128              	.LBB321:
 222:/usr/include/c++/4.8/bits/stl_algobase.h **** 	return __b;
 223:/usr/include/c++/4.8/bits/stl_algobase.h ****       return __a;
 224:/usr/include/c++/4.8/bits/stl_algobase.h ****     }
 225:/usr/include/c++/4.8/bits/stl_algobase.h **** 
 226:/usr/include/c++/4.8/bits/stl_algobase.h ****   /**
 227:/usr/include/c++/4.8/bits/stl_algobase.h ****    *  @brief This does what you think it does.
 228:/usr/include/c++/4.8/bits/stl_algobase.h ****    *  @ingroup sorting_algorithms
 229:/usr/include/c++/4.8/bits/stl_algobase.h ****    *  @param  __a  A thing of arbitrary type.
 230:/usr/include/c++/4.8/bits/stl_algobase.h ****    *  @param  __b  Another thing of arbitrary type.
 231:/usr/include/c++/4.8/bits/stl_algobase.h ****    *  @param  __comp  A @link comparison_functors comparison functor@endlink.
 232:/usr/include/c++/4.8/bits/stl_algobase.h ****    *  @return   The lesser of the parameters.
 233:/usr/include/c++/4.8/bits/stl_algobase.h ****    *
 234:/usr/include/c++/4.8/bits/stl_algobase.h ****    *  This will work on temporary expressions, since they are only evaluated
 235:/usr/include/c++/4.8/bits/stl_algobase.h ****    *  once, unlike a preprocessor macro.
 236:/usr/include/c++/4.8/bits/stl_algobase.h ****   */
 237:/usr/include/c++/4.8/bits/stl_algobase.h ****   template<typename _Tp, typename _Compare>
 238:/usr/include/c++/4.8/bits/stl_algobase.h ****     inline const _Tp&
 239:/usr/include/c++/4.8/bits/stl_algobase.h ****     min(const _Tp& __a, const _Tp& __b, _Compare __comp)
 240:/usr/include/c++/4.8/bits/stl_algobase.h ****     {
 241:/usr/include/c++/4.8/bits/stl_algobase.h ****       //return __comp(__b, __a) ? __b : __a;
 242:/usr/include/c++/4.8/bits/stl_algobase.h ****       if (__comp(__b, __a))
 243:/usr/include/c++/4.8/bits/stl_algobase.h **** 	return __b;
 244:/usr/include/c++/4.8/bits/stl_algobase.h ****       return __a;
 245:/usr/include/c++/4.8/bits/stl_algobase.h ****     }
 246:/usr/include/c++/4.8/bits/stl_algobase.h **** 
 247:/usr/include/c++/4.8/bits/stl_algobase.h ****   /**
 248:/usr/include/c++/4.8/bits/stl_algobase.h ****    *  @brief This does what you think it does.
 249:/usr/include/c++/4.8/bits/stl_algobase.h ****    *  @ingroup sorting_algorithms
 250:/usr/include/c++/4.8/bits/stl_algobase.h ****    *  @param  __a  A thing of arbitrary type.
 251:/usr/include/c++/4.8/bits/stl_algobase.h ****    *  @param  __b  Another thing of arbitrary type.
 252:/usr/include/c++/4.8/bits/stl_algobase.h ****    *  @param  __comp  A @link comparison_functors comparison functor@endlink.
 253:/usr/include/c++/4.8/bits/stl_algobase.h ****    *  @return   The greater of the parameters.
 254:/usr/include/c++/4.8/bits/stl_algobase.h ****    *
 255:/usr/include/c++/4.8/bits/stl_algobase.h ****    *  This will work on temporary expressions, since they are only evaluated
 256:/usr/include/c++/4.8/bits/stl_algobase.h ****    *  once, unlike a preprocessor macro.
 257:/usr/include/c++/4.8/bits/stl_algobase.h ****   */
 258:/usr/include/c++/4.8/bits/stl_algobase.h ****   template<typename _Tp, typename _Compare>
 259:/usr/include/c++/4.8/bits/stl_algobase.h ****     inline const _Tp&
 260:/usr/include/c++/4.8/bits/stl_algobase.h ****     max(const _Tp& __a, const _Tp& __b, _Compare __comp)
 261:/usr/include/c++/4.8/bits/stl_algobase.h ****     {
 262:/usr/include/c++/4.8/bits/stl_algobase.h ****       //return __comp(__a, __b) ? __b : __a;
 263:/usr/include/c++/4.8/bits/stl_algobase.h ****       if (__comp(__a, __b))
 264:/usr/include/c++/4.8/bits/stl_algobase.h **** 	return __b;
 265:/usr/include/c++/4.8/bits/stl_algobase.h ****       return __a;
 266:/usr/include/c++/4.8/bits/stl_algobase.h ****     }
 267:/usr/include/c++/4.8/bits/stl_algobase.h **** 
 268:/usr/include/c++/4.8/bits/stl_algobase.h ****   // If _Iterator is a __normal_iterator return its base (a plain pointer,
 269:/usr/include/c++/4.8/bits/stl_algobase.h ****   // normally) otherwise return it untouched.  See copy, fill, ... 
 270:/usr/include/c++/4.8/bits/stl_algobase.h ****   template<typename _Iterator>
 271:/usr/include/c++/4.8/bits/stl_algobase.h ****     struct _Niter_base
 272:/usr/include/c++/4.8/bits/stl_algobase.h ****     : _Iter_base<_Iterator, __is_normal_iterator<_Iterator>::__value>
 273:/usr/include/c++/4.8/bits/stl_algobase.h ****     { };
 274:/usr/include/c++/4.8/bits/stl_algobase.h **** 
 275:/usr/include/c++/4.8/bits/stl_algobase.h ****   template<typename _Iterator>
 276:/usr/include/c++/4.8/bits/stl_algobase.h ****     inline typename _Niter_base<_Iterator>::iterator_type
 277:/usr/include/c++/4.8/bits/stl_algobase.h ****     __niter_base(_Iterator __it)
 278:/usr/include/c++/4.8/bits/stl_algobase.h ****     { return std::_Niter_base<_Iterator>::_S_base(__it); }
 279:/usr/include/c++/4.8/bits/stl_algobase.h **** 
 280:/usr/include/c++/4.8/bits/stl_algobase.h ****   // Likewise, for move_iterator.
 281:/usr/include/c++/4.8/bits/stl_algobase.h ****   template<typename _Iterator>
 282:/usr/include/c++/4.8/bits/stl_algobase.h ****     struct _Miter_base
 283:/usr/include/c++/4.8/bits/stl_algobase.h ****     : _Iter_base<_Iterator, __is_move_iterator<_Iterator>::__value>
 284:/usr/include/c++/4.8/bits/stl_algobase.h ****     { };
 285:/usr/include/c++/4.8/bits/stl_algobase.h **** 
 286:/usr/include/c++/4.8/bits/stl_algobase.h ****   template<typename _Iterator>
 287:/usr/include/c++/4.8/bits/stl_algobase.h ****     inline typename _Miter_base<_Iterator>::iterator_type
 288:/usr/include/c++/4.8/bits/stl_algobase.h ****     __miter_base(_Iterator __it)
 289:/usr/include/c++/4.8/bits/stl_algobase.h ****     { return std::_Miter_base<_Iterator>::_S_base(__it); }
 290:/usr/include/c++/4.8/bits/stl_algobase.h **** 
 291:/usr/include/c++/4.8/bits/stl_algobase.h ****   // All of these auxiliary structs serve two purposes.  (1) Replace
 292:/usr/include/c++/4.8/bits/stl_algobase.h ****   // calls to copy with memmove whenever possible.  (Memmove, not memcpy,
 293:/usr/include/c++/4.8/bits/stl_algobase.h ****   // because the input and output ranges are permitted to overlap.)
 294:/usr/include/c++/4.8/bits/stl_algobase.h ****   // (2) If we're using random access iterators, then write the loop as
 295:/usr/include/c++/4.8/bits/stl_algobase.h ****   // a for loop with an explicit count.
 296:/usr/include/c++/4.8/bits/stl_algobase.h **** 
 297:/usr/include/c++/4.8/bits/stl_algobase.h ****   template<bool, bool, typename>
 298:/usr/include/c++/4.8/bits/stl_algobase.h ****     struct __copy_move
 299:/usr/include/c++/4.8/bits/stl_algobase.h ****     {
 300:/usr/include/c++/4.8/bits/stl_algobase.h ****       template<typename _II, typename _OI>
 301:/usr/include/c++/4.8/bits/stl_algobase.h ****         static _OI
 302:/usr/include/c++/4.8/bits/stl_algobase.h ****         __copy_m(_II __first, _II __last, _OI __result)
 303:/usr/include/c++/4.8/bits/stl_algobase.h ****         {
 304:/usr/include/c++/4.8/bits/stl_algobase.h **** 	  for (; __first != __last; ++__result, ++__first)
 305:/usr/include/c++/4.8/bits/stl_algobase.h **** 	    *__result = *__first;
 306:/usr/include/c++/4.8/bits/stl_algobase.h **** 	  return __result;
 307:/usr/include/c++/4.8/bits/stl_algobase.h **** 	}
 308:/usr/include/c++/4.8/bits/stl_algobase.h ****     };
 309:/usr/include/c++/4.8/bits/stl_algobase.h **** 
 310:/usr/include/c++/4.8/bits/stl_algobase.h **** #if __cplusplus >= 201103L
 311:/usr/include/c++/4.8/bits/stl_algobase.h ****   template<typename _Category>
 312:/usr/include/c++/4.8/bits/stl_algobase.h ****     struct __copy_move<true, false, _Category>
 313:/usr/include/c++/4.8/bits/stl_algobase.h ****     {
 314:/usr/include/c++/4.8/bits/stl_algobase.h ****       template<typename _II, typename _OI>
 315:/usr/include/c++/4.8/bits/stl_algobase.h ****         static _OI
 316:/usr/include/c++/4.8/bits/stl_algobase.h ****         __copy_m(_II __first, _II __last, _OI __result)
 317:/usr/include/c++/4.8/bits/stl_algobase.h ****         {
 318:/usr/include/c++/4.8/bits/stl_algobase.h **** 	  for (; __first != __last; ++__result, ++__first)
 319:/usr/include/c++/4.8/bits/stl_algobase.h **** 	    *__result = std::move(*__first);
 320:/usr/include/c++/4.8/bits/stl_algobase.h **** 	  return __result;
 321:/usr/include/c++/4.8/bits/stl_algobase.h **** 	}
 322:/usr/include/c++/4.8/bits/stl_algobase.h ****     };
 323:/usr/include/c++/4.8/bits/stl_algobase.h **** #endif
 324:/usr/include/c++/4.8/bits/stl_algobase.h **** 
 325:/usr/include/c++/4.8/bits/stl_algobase.h ****   template<>
 326:/usr/include/c++/4.8/bits/stl_algobase.h ****     struct __copy_move<false, false, random_access_iterator_tag>
 327:/usr/include/c++/4.8/bits/stl_algobase.h ****     {
 328:/usr/include/c++/4.8/bits/stl_algobase.h ****       template<typename _II, typename _OI>
 329:/usr/include/c++/4.8/bits/stl_algobase.h ****         static _OI
 330:/usr/include/c++/4.8/bits/stl_algobase.h ****         __copy_m(_II __first, _II __last, _OI __result)
 331:/usr/include/c++/4.8/bits/stl_algobase.h ****         { 
 332:/usr/include/c++/4.8/bits/stl_algobase.h **** 	  typedef typename iterator_traits<_II>::difference_type _Distance;
 333:/usr/include/c++/4.8/bits/stl_algobase.h **** 	  for(_Distance __n = __last - __first; __n > 0; --__n)
 334:/usr/include/c++/4.8/bits/stl_algobase.h **** 	    {
 335:/usr/include/c++/4.8/bits/stl_algobase.h **** 	      *__result = *__first;
 336:/usr/include/c++/4.8/bits/stl_algobase.h **** 	      ++__first;
 337:/usr/include/c++/4.8/bits/stl_algobase.h **** 	      ++__result;
 338:/usr/include/c++/4.8/bits/stl_algobase.h **** 	    }
 339:/usr/include/c++/4.8/bits/stl_algobase.h **** 	  return __result;
 340:/usr/include/c++/4.8/bits/stl_algobase.h **** 	}
 341:/usr/include/c++/4.8/bits/stl_algobase.h ****     };
 342:/usr/include/c++/4.8/bits/stl_algobase.h **** 
 343:/usr/include/c++/4.8/bits/stl_algobase.h **** #if __cplusplus >= 201103L
 344:/usr/include/c++/4.8/bits/stl_algobase.h ****   template<>
 345:/usr/include/c++/4.8/bits/stl_algobase.h ****     struct __copy_move<true, false, random_access_iterator_tag>
 346:/usr/include/c++/4.8/bits/stl_algobase.h ****     {
 347:/usr/include/c++/4.8/bits/stl_algobase.h ****       template<typename _II, typename _OI>
 348:/usr/include/c++/4.8/bits/stl_algobase.h ****         static _OI
 349:/usr/include/c++/4.8/bits/stl_algobase.h ****         __copy_m(_II __first, _II __last, _OI __result)
 350:/usr/include/c++/4.8/bits/stl_algobase.h ****         { 
 351:/usr/include/c++/4.8/bits/stl_algobase.h **** 	  typedef typename iterator_traits<_II>::difference_type _Distance;
 352:/usr/include/c++/4.8/bits/stl_algobase.h **** 	  for(_Distance __n = __last - __first; __n > 0; --__n)
 353:/usr/include/c++/4.8/bits/stl_algobase.h **** 	    {
 354:/usr/include/c++/4.8/bits/stl_algobase.h **** 	      *__result = std::move(*__first);
 355:/usr/include/c++/4.8/bits/stl_algobase.h **** 	      ++__first;
 356:/usr/include/c++/4.8/bits/stl_algobase.h **** 	      ++__result;
 357:/usr/include/c++/4.8/bits/stl_algobase.h **** 	    }
 358:/usr/include/c++/4.8/bits/stl_algobase.h **** 	  return __result;
 359:/usr/include/c++/4.8/bits/stl_algobase.h **** 	}
 360:/usr/include/c++/4.8/bits/stl_algobase.h ****     };
 361:/usr/include/c++/4.8/bits/stl_algobase.h **** #endif
 362:/usr/include/c++/4.8/bits/stl_algobase.h **** 
 363:/usr/include/c++/4.8/bits/stl_algobase.h ****   template<bool _IsMove>
 364:/usr/include/c++/4.8/bits/stl_algobase.h ****     struct __copy_move<_IsMove, true, random_access_iterator_tag>
 365:/usr/include/c++/4.8/bits/stl_algobase.h ****     {
 366:/usr/include/c++/4.8/bits/stl_algobase.h ****       template<typename _Tp>
 367:/usr/include/c++/4.8/bits/stl_algobase.h ****         static _Tp*
 368:/usr/include/c++/4.8/bits/stl_algobase.h ****         __copy_m(const _Tp* __first, const _Tp* __last, _Tp* __result)
 369:/usr/include/c++/4.8/bits/stl_algobase.h ****         {
 370:/usr/include/c++/4.8/bits/stl_algobase.h **** 	  const ptrdiff_t _Num = __last - __first;
 371:/usr/include/c++/4.8/bits/stl_algobase.h **** 	  if (_Num)
 129              		.loc 2 371 0
 130 005c 4885C0   		testq	%rax, %rax
 131 005f 4889CF   		movq	%rcx, %rdi
 132 0062 740E     		je	.L5
 372:/usr/include/c++/4.8/bits/stl_algobase.h **** 	    __builtin_memmove(__result, __first, sizeof(_Tp) * _Num);
 133              		.loc 2 372 0
 134 0064 4889EF   		movq	%rbp, %rdi
 135 0067 4889CE   		movq	%rcx, %rsi
 136 006a E8000000 		call	memmove
 136      00
 137              	.LVL10:
 138 006f 488B3B   		movq	(%rbx), %rdi
 139              	.L5:
 140              	.LVL11:
 141              	.LBE321:
 142              	.LBE320:
 143              	.LBE319:
 144              	.LBE318:
 145              	.LBE317:
 146              	.LBE316:
 147              	.LBE315:
 148              	.LBE314:
 149              	.LBE313:
 150              	.LBE312:
 151              	.LBE311:
 410:/usr/include/c++/4.8/bits/vector.tcc **** 	    __new_finish = 0;
 411:/usr/include/c++/4.8/bits/vector.tcc **** 
 412:/usr/include/c++/4.8/bits/vector.tcc **** 	    __new_finish
 413:/usr/include/c++/4.8/bits/vector.tcc **** 	      = std::__uninitialized_move_if_noexcept_a
 414:/usr/include/c++/4.8/bits/vector.tcc **** 	      (this->_M_impl._M_start, this->_M_impl._M_finish,
 415:/usr/include/c++/4.8/bits/vector.tcc **** 	       __new_start, _M_get_Tp_allocator());
 416:/usr/include/c++/4.8/bits/vector.tcc **** 
 417:/usr/include/c++/4.8/bits/vector.tcc **** 	    ++__new_finish;
 152              		.loc 1 417 0
 153 0072 4983C504 		addq	$4, %r13
 154              	.LVL12:
 155              	.LBB322:
 156              	.LBB323:
 173:/usr/include/c++/4.8/bits/stl_vector.h **** 	  _M_impl.deallocate(__p, __n);
 157              		.loc 3 173 0
 158 0076 4885FF   		testq	%rdi, %rdi
 159 0079 7405     		je	.L6
 160              	.LVL13:
 161              	.LBB324:
 162              	.LBB325:
 110:/usr/include/c++/4.8/ext/new_allocator.h **** 
 163              		.loc 4 110 0
 164 007b E8000000 		call	_ZdlPv
 164      00
 165              	.LVL14:
 166              	.L6:
 167              	.LBE325:
 168              	.LBE324:
 169              	.LBE323:
 170              	.LBE322:
 418:/usr/include/c++/4.8/bits/vector.tcc **** 	  }
 419:/usr/include/c++/4.8/bits/vector.tcc **** 	__catch(...)
 420:/usr/include/c++/4.8/bits/vector.tcc **** 	  {
 421:/usr/include/c++/4.8/bits/vector.tcc **** 	    if (!__new_finish)
 422:/usr/include/c++/4.8/bits/vector.tcc **** 	      _Alloc_traits::destroy(this->_M_impl, __new_start + size());
 423:/usr/include/c++/4.8/bits/vector.tcc **** 	    else
 424:/usr/include/c++/4.8/bits/vector.tcc **** 	      std::_Destroy(__new_start, __new_finish, _M_get_Tp_allocator());
 425:/usr/include/c++/4.8/bits/vector.tcc **** 	    _M_deallocate(__new_start, __len);
 426:/usr/include/c++/4.8/bits/vector.tcc **** 	    __throw_exception_again;
 427:/usr/include/c++/4.8/bits/vector.tcc **** 	  }
 428:/usr/include/c++/4.8/bits/vector.tcc **** 	std::_Destroy(this->_M_impl._M_start, this->_M_impl._M_finish,
 429:/usr/include/c++/4.8/bits/vector.tcc **** 		      _M_get_Tp_allocator());
 430:/usr/include/c++/4.8/bits/vector.tcc **** 	_M_deallocate(this->_M_impl._M_start,
 431:/usr/include/c++/4.8/bits/vector.tcc **** 		      this->_M_impl._M_end_of_storage
 432:/usr/include/c++/4.8/bits/vector.tcc **** 		      - this->_M_impl._M_start);
 433:/usr/include/c++/4.8/bits/vector.tcc **** 	this->_M_impl._M_start = __new_start;
 171              		.loc 1 433 0
 172 0080 48892B   		movq	%rbp, (%rbx)
 434:/usr/include/c++/4.8/bits/vector.tcc **** 	this->_M_impl._M_finish = __new_finish;
 435:/usr/include/c++/4.8/bits/vector.tcc **** 	this->_M_impl._M_end_of_storage = __new_start + __len;
 173              		.loc 1 435 0
 174 0083 4C01E5   		addq	%r12, %rbp
 175              	.LVL15:
 434:/usr/include/c++/4.8/bits/vector.tcc **** 	this->_M_impl._M_finish = __new_finish;
 176              		.loc 1 434 0
 177 0086 4C896B08 		movq	%r13, 8(%rbx)
 178              		.loc 1 435 0
 179 008a 48896B10 		movq	%rbp, 16(%rbx)
 180              	.LBE327:
 436:/usr/include/c++/4.8/bits/vector.tcc ****       }
 181              		.loc 1 436 0
 182 008e 4883C418 		addq	$24, %rsp
 183              		.cfi_remember_state
 184              		.cfi_def_cfa_offset 40
 185 0092 5B       		popq	%rbx
 186              		.cfi_def_cfa_offset 32
 187              	.LVL16:
 188 0093 5D       		popq	%rbp
 189              		.cfi_def_cfa_offset 24
 190 0094 415C     		popq	%r12
 191              		.cfi_def_cfa_offset 16
 192 0096 415D     		popq	%r13
 193              		.cfi_def_cfa_offset 8
 194              	.LVL17:
 195 0098 C3       		ret
 196              	.LVL18:
 197 0099 0F1F8000 		.p2align 4,,10
 197      000000
 198              		.p2align 3
 199              	.L21:
 200              		.cfi_restore_state
 201              	.LBB328:
 202              	.LBB326:
 203              	.LBB298:
 647:/usr/include/c++/4.8/bits/stl_vector.h **** 
 648:/usr/include/c++/4.8/bits/stl_vector.h ****       /**  Returns the size() of the largest possible %vector.  */
 649:/usr/include/c++/4.8/bits/stl_vector.h ****       size_type
 650:/usr/include/c++/4.8/bits/stl_vector.h ****       max_size() const _GLIBCXX_NOEXCEPT
 651:/usr/include/c++/4.8/bits/stl_vector.h ****       { return _Alloc_traits::max_size(_M_get_Tp_allocator()); }
 652:/usr/include/c++/4.8/bits/stl_vector.h **** 
 653:/usr/include/c++/4.8/bits/stl_vector.h **** #if __cplusplus >= 201103L
 654:/usr/include/c++/4.8/bits/stl_vector.h ****       /**
 655:/usr/include/c++/4.8/bits/stl_vector.h ****        *  @brief  Resizes the %vector to the specified number of elements.
 656:/usr/include/c++/4.8/bits/stl_vector.h ****        *  @param  __new_size  Number of elements the %vector should contain.
 657:/usr/include/c++/4.8/bits/stl_vector.h ****        *
 658:/usr/include/c++/4.8/bits/stl_vector.h ****        *  This function will %resize the %vector to the specified
 659:/usr/include/c++/4.8/bits/stl_vector.h ****        *  number of elements.  If the number is smaller than the
 660:/usr/include/c++/4.8/bits/stl_vector.h ****        *  %vector's current size the %vector is truncated, otherwise
 661:/usr/include/c++/4.8/bits/stl_vector.h ****        *  default constructed elements are appended.
 662:/usr/include/c++/4.8/bits/stl_vector.h ****        */
 663:/usr/include/c++/4.8/bits/stl_vector.h ****       void
 664:/usr/include/c++/4.8/bits/stl_vector.h ****       resize(size_type __new_size)
 665:/usr/include/c++/4.8/bits/stl_vector.h ****       {
 666:/usr/include/c++/4.8/bits/stl_vector.h **** 	if (__new_size > size())
 667:/usr/include/c++/4.8/bits/stl_vector.h **** 	  _M_default_append(__new_size - size());
 668:/usr/include/c++/4.8/bits/stl_vector.h **** 	else if (__new_size < size())
 669:/usr/include/c++/4.8/bits/stl_vector.h **** 	  _M_erase_at_end(this->_M_impl._M_start + __new_size);
 670:/usr/include/c++/4.8/bits/stl_vector.h ****       }
 671:/usr/include/c++/4.8/bits/stl_vector.h **** 
 672:/usr/include/c++/4.8/bits/stl_vector.h ****       /**
 673:/usr/include/c++/4.8/bits/stl_vector.h ****        *  @brief  Resizes the %vector to the specified number of elements.
 674:/usr/include/c++/4.8/bits/stl_vector.h ****        *  @param  __new_size  Number of elements the %vector should contain.
 675:/usr/include/c++/4.8/bits/stl_vector.h ****        *  @param  __x  Data with which new elements should be populated.
 676:/usr/include/c++/4.8/bits/stl_vector.h ****        *
 677:/usr/include/c++/4.8/bits/stl_vector.h ****        *  This function will %resize the %vector to the specified
 678:/usr/include/c++/4.8/bits/stl_vector.h ****        *  number of elements.  If the number is smaller than the
 679:/usr/include/c++/4.8/bits/stl_vector.h ****        *  %vector's current size the %vector is truncated, otherwise
 680:/usr/include/c++/4.8/bits/stl_vector.h ****        *  the %vector is extended and new elements are populated with
 681:/usr/include/c++/4.8/bits/stl_vector.h ****        *  given data.
 682:/usr/include/c++/4.8/bits/stl_vector.h ****        */
 683:/usr/include/c++/4.8/bits/stl_vector.h ****       void
 684:/usr/include/c++/4.8/bits/stl_vector.h ****       resize(size_type __new_size, const value_type& __x)
 685:/usr/include/c++/4.8/bits/stl_vector.h ****       {
 686:/usr/include/c++/4.8/bits/stl_vector.h **** 	if (__new_size > size())
 687:/usr/include/c++/4.8/bits/stl_vector.h **** 	  insert(end(), __new_size - size(), __x);
 688:/usr/include/c++/4.8/bits/stl_vector.h **** 	else if (__new_size < size())
 689:/usr/include/c++/4.8/bits/stl_vector.h **** 	  _M_erase_at_end(this->_M_impl._M_start + __new_size);
 690:/usr/include/c++/4.8/bits/stl_vector.h ****       }
 691:/usr/include/c++/4.8/bits/stl_vector.h **** #else
 692:/usr/include/c++/4.8/bits/stl_vector.h ****       /**
 693:/usr/include/c++/4.8/bits/stl_vector.h ****        *  @brief  Resizes the %vector to the specified number of elements.
 694:/usr/include/c++/4.8/bits/stl_vector.h ****        *  @param  __new_size  Number of elements the %vector should contain.
 695:/usr/include/c++/4.8/bits/stl_vector.h ****        *  @param  __x  Data with which new elements should be populated.
 696:/usr/include/c++/4.8/bits/stl_vector.h ****        *
 697:/usr/include/c++/4.8/bits/stl_vector.h ****        *  This function will %resize the %vector to the specified
 698:/usr/include/c++/4.8/bits/stl_vector.h ****        *  number of elements.  If the number is smaller than the
 699:/usr/include/c++/4.8/bits/stl_vector.h ****        *  %vector's current size the %vector is truncated, otherwise
 700:/usr/include/c++/4.8/bits/stl_vector.h ****        *  the %vector is extended and new elements are populated with
 701:/usr/include/c++/4.8/bits/stl_vector.h ****        *  given data.
 702:/usr/include/c++/4.8/bits/stl_vector.h ****        */
 703:/usr/include/c++/4.8/bits/stl_vector.h ****       void
 704:/usr/include/c++/4.8/bits/stl_vector.h ****       resize(size_type __new_size, value_type __x = value_type())
 705:/usr/include/c++/4.8/bits/stl_vector.h ****       {
 706:/usr/include/c++/4.8/bits/stl_vector.h **** 	if (__new_size > size())
 707:/usr/include/c++/4.8/bits/stl_vector.h **** 	  insert(end(), __new_size - size(), __x);
 708:/usr/include/c++/4.8/bits/stl_vector.h **** 	else if (__new_size < size())
 709:/usr/include/c++/4.8/bits/stl_vector.h **** 	  _M_erase_at_end(this->_M_impl._M_start + __new_size);
 710:/usr/include/c++/4.8/bits/stl_vector.h ****       }
 711:/usr/include/c++/4.8/bits/stl_vector.h **** #endif
 712:/usr/include/c++/4.8/bits/stl_vector.h **** 
 713:/usr/include/c++/4.8/bits/stl_vector.h **** #if __cplusplus >= 201103L
 714:/usr/include/c++/4.8/bits/stl_vector.h ****       /**  A non-binding request to reduce capacity() to size().  */
 715:/usr/include/c++/4.8/bits/stl_vector.h ****       void
 716:/usr/include/c++/4.8/bits/stl_vector.h ****       shrink_to_fit()
 717:/usr/include/c++/4.8/bits/stl_vector.h ****       { _M_shrink_to_fit(); }
 718:/usr/include/c++/4.8/bits/stl_vector.h **** #endif
 719:/usr/include/c++/4.8/bits/stl_vector.h **** 
 720:/usr/include/c++/4.8/bits/stl_vector.h ****       /**
 721:/usr/include/c++/4.8/bits/stl_vector.h ****        *  Returns the total number of elements that the %vector can
 722:/usr/include/c++/4.8/bits/stl_vector.h ****        *  hold before needing to allocate more memory.
 723:/usr/include/c++/4.8/bits/stl_vector.h ****        */
 724:/usr/include/c++/4.8/bits/stl_vector.h ****       size_type
 725:/usr/include/c++/4.8/bits/stl_vector.h ****       capacity() const _GLIBCXX_NOEXCEPT
 726:/usr/include/c++/4.8/bits/stl_vector.h ****       { return size_type(this->_M_impl._M_end_of_storage
 727:/usr/include/c++/4.8/bits/stl_vector.h **** 			 - this->_M_impl._M_start); }
 728:/usr/include/c++/4.8/bits/stl_vector.h **** 
 729:/usr/include/c++/4.8/bits/stl_vector.h ****       /**
 730:/usr/include/c++/4.8/bits/stl_vector.h ****        *  Returns true if the %vector is empty.  (Thus begin() would
 731:/usr/include/c++/4.8/bits/stl_vector.h ****        *  equal end().)
 732:/usr/include/c++/4.8/bits/stl_vector.h ****        */
 733:/usr/include/c++/4.8/bits/stl_vector.h ****       bool
 734:/usr/include/c++/4.8/bits/stl_vector.h ****       empty() const _GLIBCXX_NOEXCEPT
 735:/usr/include/c++/4.8/bits/stl_vector.h ****       { return begin() == end(); }
 736:/usr/include/c++/4.8/bits/stl_vector.h **** 
 737:/usr/include/c++/4.8/bits/stl_vector.h ****       /**
 738:/usr/include/c++/4.8/bits/stl_vector.h ****        *  @brief  Attempt to preallocate enough memory for specified number of
 739:/usr/include/c++/4.8/bits/stl_vector.h ****        *          elements.
 740:/usr/include/c++/4.8/bits/stl_vector.h ****        *  @param  __n  Number of elements required.
 741:/usr/include/c++/4.8/bits/stl_vector.h ****        *  @throw  std::length_error  If @a n exceeds @c max_size().
 742:/usr/include/c++/4.8/bits/stl_vector.h ****        *
 743:/usr/include/c++/4.8/bits/stl_vector.h ****        *  This function attempts to reserve enough memory for the
 744:/usr/include/c++/4.8/bits/stl_vector.h ****        *  %vector to hold the specified number of elements.  If the
 745:/usr/include/c++/4.8/bits/stl_vector.h ****        *  number requested is more than max_size(), length_error is
 746:/usr/include/c++/4.8/bits/stl_vector.h ****        *  thrown.
 747:/usr/include/c++/4.8/bits/stl_vector.h ****        *
 748:/usr/include/c++/4.8/bits/stl_vector.h ****        *  The advantage of this function is that if optimal code is a
 749:/usr/include/c++/4.8/bits/stl_vector.h ****        *  necessity and the user can determine the number of elements
 750:/usr/include/c++/4.8/bits/stl_vector.h ****        *  that will be required, the user can reserve the memory in
 751:/usr/include/c++/4.8/bits/stl_vector.h ****        *  %advance, and thus prevent a possible reallocation of memory
 752:/usr/include/c++/4.8/bits/stl_vector.h ****        *  and copying of %vector data.
 753:/usr/include/c++/4.8/bits/stl_vector.h ****        */
 754:/usr/include/c++/4.8/bits/stl_vector.h ****       void
 755:/usr/include/c++/4.8/bits/stl_vector.h ****       reserve(size_type __n);
 756:/usr/include/c++/4.8/bits/stl_vector.h **** 
 757:/usr/include/c++/4.8/bits/stl_vector.h ****       // element access
 758:/usr/include/c++/4.8/bits/stl_vector.h ****       /**
 759:/usr/include/c++/4.8/bits/stl_vector.h ****        *  @brief  Subscript access to the data contained in the %vector.
 760:/usr/include/c++/4.8/bits/stl_vector.h ****        *  @param __n The index of the element for which data should be
 761:/usr/include/c++/4.8/bits/stl_vector.h ****        *  accessed.
 762:/usr/include/c++/4.8/bits/stl_vector.h ****        *  @return  Read/write reference to data.
 763:/usr/include/c++/4.8/bits/stl_vector.h ****        *
 764:/usr/include/c++/4.8/bits/stl_vector.h ****        *  This operator allows for easy, array-style, data access.
 765:/usr/include/c++/4.8/bits/stl_vector.h ****        *  Note that data access with this operator is unchecked and
 766:/usr/include/c++/4.8/bits/stl_vector.h ****        *  out_of_range lookups are not defined. (For checked lookups
 767:/usr/include/c++/4.8/bits/stl_vector.h ****        *  see at().)
 768:/usr/include/c++/4.8/bits/stl_vector.h ****        */
 769:/usr/include/c++/4.8/bits/stl_vector.h ****       reference
 770:/usr/include/c++/4.8/bits/stl_vector.h ****       operator[](size_type __n)
 771:/usr/include/c++/4.8/bits/stl_vector.h ****       { return *(this->_M_impl._M_start + __n); }
 772:/usr/include/c++/4.8/bits/stl_vector.h **** 
 773:/usr/include/c++/4.8/bits/stl_vector.h ****       /**
 774:/usr/include/c++/4.8/bits/stl_vector.h ****        *  @brief  Subscript access to the data contained in the %vector.
 775:/usr/include/c++/4.8/bits/stl_vector.h ****        *  @param __n The index of the element for which data should be
 776:/usr/include/c++/4.8/bits/stl_vector.h ****        *  accessed.
 777:/usr/include/c++/4.8/bits/stl_vector.h ****        *  @return  Read-only (constant) reference to data.
 778:/usr/include/c++/4.8/bits/stl_vector.h ****        *
 779:/usr/include/c++/4.8/bits/stl_vector.h ****        *  This operator allows for easy, array-style, data access.
 780:/usr/include/c++/4.8/bits/stl_vector.h ****        *  Note that data access with this operator is unchecked and
 781:/usr/include/c++/4.8/bits/stl_vector.h ****        *  out_of_range lookups are not defined. (For checked lookups
 782:/usr/include/c++/4.8/bits/stl_vector.h ****        *  see at().)
 783:/usr/include/c++/4.8/bits/stl_vector.h ****        */
 784:/usr/include/c++/4.8/bits/stl_vector.h ****       const_reference
 785:/usr/include/c++/4.8/bits/stl_vector.h ****       operator[](size_type __n) const
 786:/usr/include/c++/4.8/bits/stl_vector.h ****       { return *(this->_M_impl._M_start + __n); }
 787:/usr/include/c++/4.8/bits/stl_vector.h **** 
 788:/usr/include/c++/4.8/bits/stl_vector.h ****     protected:
 789:/usr/include/c++/4.8/bits/stl_vector.h ****       /// Safety check used only from at().
 790:/usr/include/c++/4.8/bits/stl_vector.h ****       void
 791:/usr/include/c++/4.8/bits/stl_vector.h ****       _M_range_check(size_type __n) const
 792:/usr/include/c++/4.8/bits/stl_vector.h ****       {
 793:/usr/include/c++/4.8/bits/stl_vector.h **** 	if (__n >= this->size())
 794:/usr/include/c++/4.8/bits/stl_vector.h **** 	  __throw_out_of_range(__N("vector::_M_range_check"));
 795:/usr/include/c++/4.8/bits/stl_vector.h ****       }
 796:/usr/include/c++/4.8/bits/stl_vector.h **** 
 797:/usr/include/c++/4.8/bits/stl_vector.h ****     public:
 798:/usr/include/c++/4.8/bits/stl_vector.h ****       /**
 799:/usr/include/c++/4.8/bits/stl_vector.h ****        *  @brief  Provides access to the data contained in the %vector.
 800:/usr/include/c++/4.8/bits/stl_vector.h ****        *  @param __n The index of the element for which data should be
 801:/usr/include/c++/4.8/bits/stl_vector.h ****        *  accessed.
 802:/usr/include/c++/4.8/bits/stl_vector.h ****        *  @return  Read/write reference to data.
 803:/usr/include/c++/4.8/bits/stl_vector.h ****        *  @throw  std::out_of_range  If @a __n is an invalid index.
 804:/usr/include/c++/4.8/bits/stl_vector.h ****        *
 805:/usr/include/c++/4.8/bits/stl_vector.h ****        *  This function provides for safer data access.  The parameter
 806:/usr/include/c++/4.8/bits/stl_vector.h ****        *  is first checked that it is in the range of the vector.  The
 807:/usr/include/c++/4.8/bits/stl_vector.h ****        *  function throws out_of_range if the check fails.
 808:/usr/include/c++/4.8/bits/stl_vector.h ****        */
 809:/usr/include/c++/4.8/bits/stl_vector.h ****       reference
 810:/usr/include/c++/4.8/bits/stl_vector.h ****       at(size_type __n)
 811:/usr/include/c++/4.8/bits/stl_vector.h ****       {
 812:/usr/include/c++/4.8/bits/stl_vector.h **** 	_M_range_check(__n);
 813:/usr/include/c++/4.8/bits/stl_vector.h **** 	return (*this)[__n]; 
 814:/usr/include/c++/4.8/bits/stl_vector.h ****       }
 815:/usr/include/c++/4.8/bits/stl_vector.h **** 
 816:/usr/include/c++/4.8/bits/stl_vector.h ****       /**
 817:/usr/include/c++/4.8/bits/stl_vector.h ****        *  @brief  Provides access to the data contained in the %vector.
 818:/usr/include/c++/4.8/bits/stl_vector.h ****        *  @param __n The index of the element for which data should be
 819:/usr/include/c++/4.8/bits/stl_vector.h ****        *  accessed.
 820:/usr/include/c++/4.8/bits/stl_vector.h ****        *  @return  Read-only (constant) reference to data.
 821:/usr/include/c++/4.8/bits/stl_vector.h ****        *  @throw  std::out_of_range  If @a __n is an invalid index.
 822:/usr/include/c++/4.8/bits/stl_vector.h ****        *
 823:/usr/include/c++/4.8/bits/stl_vector.h ****        *  This function provides for safer data access.  The parameter
 824:/usr/include/c++/4.8/bits/stl_vector.h ****        *  is first checked that it is in the range of the vector.  The
 825:/usr/include/c++/4.8/bits/stl_vector.h ****        *  function throws out_of_range if the check fails.
 826:/usr/include/c++/4.8/bits/stl_vector.h ****        */
 827:/usr/include/c++/4.8/bits/stl_vector.h ****       const_reference
 828:/usr/include/c++/4.8/bits/stl_vector.h ****       at(size_type __n) const
 829:/usr/include/c++/4.8/bits/stl_vector.h ****       {
 830:/usr/include/c++/4.8/bits/stl_vector.h **** 	_M_range_check(__n);
 831:/usr/include/c++/4.8/bits/stl_vector.h **** 	return (*this)[__n];
 832:/usr/include/c++/4.8/bits/stl_vector.h ****       }
 833:/usr/include/c++/4.8/bits/stl_vector.h **** 
 834:/usr/include/c++/4.8/bits/stl_vector.h ****       /**
 835:/usr/include/c++/4.8/bits/stl_vector.h ****        *  Returns a read/write reference to the data at the first
 836:/usr/include/c++/4.8/bits/stl_vector.h ****        *  element of the %vector.
 837:/usr/include/c++/4.8/bits/stl_vector.h ****        */
 838:/usr/include/c++/4.8/bits/stl_vector.h ****       reference
 839:/usr/include/c++/4.8/bits/stl_vector.h ****       front()
 840:/usr/include/c++/4.8/bits/stl_vector.h ****       { return *begin(); }
 841:/usr/include/c++/4.8/bits/stl_vector.h **** 
 842:/usr/include/c++/4.8/bits/stl_vector.h ****       /**
 843:/usr/include/c++/4.8/bits/stl_vector.h ****        *  Returns a read-only (constant) reference to the data at the first
 844:/usr/include/c++/4.8/bits/stl_vector.h ****        *  element of the %vector.
 845:/usr/include/c++/4.8/bits/stl_vector.h ****        */
 846:/usr/include/c++/4.8/bits/stl_vector.h ****       const_reference
 847:/usr/include/c++/4.8/bits/stl_vector.h ****       front() const
 848:/usr/include/c++/4.8/bits/stl_vector.h ****       { return *begin(); }
 849:/usr/include/c++/4.8/bits/stl_vector.h **** 
 850:/usr/include/c++/4.8/bits/stl_vector.h ****       /**
 851:/usr/include/c++/4.8/bits/stl_vector.h ****        *  Returns a read/write reference to the data at the last
 852:/usr/include/c++/4.8/bits/stl_vector.h ****        *  element of the %vector.
 853:/usr/include/c++/4.8/bits/stl_vector.h ****        */
 854:/usr/include/c++/4.8/bits/stl_vector.h ****       reference
 855:/usr/include/c++/4.8/bits/stl_vector.h ****       back()
 856:/usr/include/c++/4.8/bits/stl_vector.h ****       { return *(end() - 1); }
 857:/usr/include/c++/4.8/bits/stl_vector.h ****       
 858:/usr/include/c++/4.8/bits/stl_vector.h ****       /**
 859:/usr/include/c++/4.8/bits/stl_vector.h ****        *  Returns a read-only (constant) reference to the data at the
 860:/usr/include/c++/4.8/bits/stl_vector.h ****        *  last element of the %vector.
 861:/usr/include/c++/4.8/bits/stl_vector.h ****        */
 862:/usr/include/c++/4.8/bits/stl_vector.h ****       const_reference
 863:/usr/include/c++/4.8/bits/stl_vector.h ****       back() const
 864:/usr/include/c++/4.8/bits/stl_vector.h ****       { return *(end() - 1); }
 865:/usr/include/c++/4.8/bits/stl_vector.h **** 
 866:/usr/include/c++/4.8/bits/stl_vector.h ****       // _GLIBCXX_RESOLVE_LIB_DEFECTS
 867:/usr/include/c++/4.8/bits/stl_vector.h ****       // DR 464. Suggestion for new member functions in standard containers.
 868:/usr/include/c++/4.8/bits/stl_vector.h ****       // data access
 869:/usr/include/c++/4.8/bits/stl_vector.h ****       /**
 870:/usr/include/c++/4.8/bits/stl_vector.h ****        *   Returns a pointer such that [data(), data() + size()) is a valid
 871:/usr/include/c++/4.8/bits/stl_vector.h ****        *   range.  For a non-empty %vector, data() == &front().
 872:/usr/include/c++/4.8/bits/stl_vector.h ****        */
 873:/usr/include/c++/4.8/bits/stl_vector.h **** #if __cplusplus >= 201103L
 874:/usr/include/c++/4.8/bits/stl_vector.h ****       _Tp*
 875:/usr/include/c++/4.8/bits/stl_vector.h **** #else
 876:/usr/include/c++/4.8/bits/stl_vector.h ****       pointer
 877:/usr/include/c++/4.8/bits/stl_vector.h **** #endif
 878:/usr/include/c++/4.8/bits/stl_vector.h ****       data() _GLIBCXX_NOEXCEPT
 879:/usr/include/c++/4.8/bits/stl_vector.h ****       { return std::__addressof(front()); }
 880:/usr/include/c++/4.8/bits/stl_vector.h **** 
 881:/usr/include/c++/4.8/bits/stl_vector.h **** #if __cplusplus >= 201103L
 882:/usr/include/c++/4.8/bits/stl_vector.h ****       const _Tp*
 883:/usr/include/c++/4.8/bits/stl_vector.h **** #else
 884:/usr/include/c++/4.8/bits/stl_vector.h ****       const_pointer
 885:/usr/include/c++/4.8/bits/stl_vector.h **** #endif
 886:/usr/include/c++/4.8/bits/stl_vector.h ****       data() const _GLIBCXX_NOEXCEPT
 887:/usr/include/c++/4.8/bits/stl_vector.h ****       { return std::__addressof(front()); }
 888:/usr/include/c++/4.8/bits/stl_vector.h **** 
 889:/usr/include/c++/4.8/bits/stl_vector.h ****       // [23.2.4.3] modifiers
 890:/usr/include/c++/4.8/bits/stl_vector.h ****       /**
 891:/usr/include/c++/4.8/bits/stl_vector.h ****        *  @brief  Add data to the end of the %vector.
 892:/usr/include/c++/4.8/bits/stl_vector.h ****        *  @param  __x  Data to be added.
 893:/usr/include/c++/4.8/bits/stl_vector.h ****        *
 894:/usr/include/c++/4.8/bits/stl_vector.h ****        *  This is a typical stack operation.  The function creates an
 895:/usr/include/c++/4.8/bits/stl_vector.h ****        *  element at the end of the %vector and assigns the given data
 896:/usr/include/c++/4.8/bits/stl_vector.h ****        *  to it.  Due to the nature of a %vector this operation can be
 897:/usr/include/c++/4.8/bits/stl_vector.h ****        *  done in constant time if the %vector has preallocated space
 898:/usr/include/c++/4.8/bits/stl_vector.h ****        *  available.
 899:/usr/include/c++/4.8/bits/stl_vector.h ****        */
 900:/usr/include/c++/4.8/bits/stl_vector.h ****       void
 901:/usr/include/c++/4.8/bits/stl_vector.h ****       push_back(const value_type& __x)
 902:/usr/include/c++/4.8/bits/stl_vector.h ****       {
 903:/usr/include/c++/4.8/bits/stl_vector.h **** 	if (this->_M_impl._M_finish != this->_M_impl._M_end_of_storage)
 904:/usr/include/c++/4.8/bits/stl_vector.h **** 	  {
 905:/usr/include/c++/4.8/bits/stl_vector.h **** 	    _Alloc_traits::construct(this->_M_impl, this->_M_impl._M_finish,
 906:/usr/include/c++/4.8/bits/stl_vector.h **** 	                             __x);
 907:/usr/include/c++/4.8/bits/stl_vector.h **** 	    ++this->_M_impl._M_finish;
 908:/usr/include/c++/4.8/bits/stl_vector.h **** 	  }
 909:/usr/include/c++/4.8/bits/stl_vector.h **** 	else
 910:/usr/include/c++/4.8/bits/stl_vector.h **** #if __cplusplus >= 201103L
 911:/usr/include/c++/4.8/bits/stl_vector.h **** 	  _M_emplace_back_aux(__x);
 912:/usr/include/c++/4.8/bits/stl_vector.h **** #else
 913:/usr/include/c++/4.8/bits/stl_vector.h **** 	  _M_insert_aux(end(), __x);
 914:/usr/include/c++/4.8/bits/stl_vector.h **** #endif
 915:/usr/include/c++/4.8/bits/stl_vector.h ****       }
 916:/usr/include/c++/4.8/bits/stl_vector.h **** 
 917:/usr/include/c++/4.8/bits/stl_vector.h **** #if __cplusplus >= 201103L
 918:/usr/include/c++/4.8/bits/stl_vector.h ****       void
 919:/usr/include/c++/4.8/bits/stl_vector.h ****       push_back(value_type&& __x)
 920:/usr/include/c++/4.8/bits/stl_vector.h ****       { emplace_back(std::move(__x)); }
 921:/usr/include/c++/4.8/bits/stl_vector.h **** 
 922:/usr/include/c++/4.8/bits/stl_vector.h ****       template<typename... _Args>
 923:/usr/include/c++/4.8/bits/stl_vector.h ****         void
 924:/usr/include/c++/4.8/bits/stl_vector.h ****         emplace_back(_Args&&... __args);
 925:/usr/include/c++/4.8/bits/stl_vector.h **** #endif
 926:/usr/include/c++/4.8/bits/stl_vector.h **** 
 927:/usr/include/c++/4.8/bits/stl_vector.h ****       /**
 928:/usr/include/c++/4.8/bits/stl_vector.h ****        *  @brief  Removes last element.
 929:/usr/include/c++/4.8/bits/stl_vector.h ****        *
 930:/usr/include/c++/4.8/bits/stl_vector.h ****        *  This is a typical stack operation. It shrinks the %vector by one.
 931:/usr/include/c++/4.8/bits/stl_vector.h ****        *
 932:/usr/include/c++/4.8/bits/stl_vector.h ****        *  Note that no data is returned, and if the last element's
 933:/usr/include/c++/4.8/bits/stl_vector.h ****        *  data is needed, it should be retrieved before pop_back() is
 934:/usr/include/c++/4.8/bits/stl_vector.h ****        *  called.
 935:/usr/include/c++/4.8/bits/stl_vector.h ****        */
 936:/usr/include/c++/4.8/bits/stl_vector.h ****       void
 937:/usr/include/c++/4.8/bits/stl_vector.h ****       pop_back()
 938:/usr/include/c++/4.8/bits/stl_vector.h ****       {
 939:/usr/include/c++/4.8/bits/stl_vector.h **** 	--this->_M_impl._M_finish;
 940:/usr/include/c++/4.8/bits/stl_vector.h **** 	_Alloc_traits::destroy(this->_M_impl, this->_M_impl._M_finish);
 941:/usr/include/c++/4.8/bits/stl_vector.h ****       }
 942:/usr/include/c++/4.8/bits/stl_vector.h **** 
 943:/usr/include/c++/4.8/bits/stl_vector.h **** #if __cplusplus >= 201103L
 944:/usr/include/c++/4.8/bits/stl_vector.h ****       /**
 945:/usr/include/c++/4.8/bits/stl_vector.h ****        *  @brief  Inserts an object in %vector before specified iterator.
 946:/usr/include/c++/4.8/bits/stl_vector.h ****        *  @param  __position  An iterator into the %vector.
 947:/usr/include/c++/4.8/bits/stl_vector.h ****        *  @param  __args  Arguments.
 948:/usr/include/c++/4.8/bits/stl_vector.h ****        *  @return  An iterator that points to the inserted data.
 949:/usr/include/c++/4.8/bits/stl_vector.h ****        *
 950:/usr/include/c++/4.8/bits/stl_vector.h ****        *  This function will insert an object of type T constructed
 951:/usr/include/c++/4.8/bits/stl_vector.h ****        *  with T(std::forward<Args>(args)...) before the specified location.
 952:/usr/include/c++/4.8/bits/stl_vector.h ****        *  Note that this kind of operation could be expensive for a %vector
 953:/usr/include/c++/4.8/bits/stl_vector.h ****        *  and if it is frequently used the user should consider using
 954:/usr/include/c++/4.8/bits/stl_vector.h ****        *  std::list.
 955:/usr/include/c++/4.8/bits/stl_vector.h ****        */
 956:/usr/include/c++/4.8/bits/stl_vector.h ****       template<typename... _Args>
 957:/usr/include/c++/4.8/bits/stl_vector.h ****         iterator
 958:/usr/include/c++/4.8/bits/stl_vector.h ****         emplace(iterator __position, _Args&&... __args);
 959:/usr/include/c++/4.8/bits/stl_vector.h **** #endif
 960:/usr/include/c++/4.8/bits/stl_vector.h **** 
 961:/usr/include/c++/4.8/bits/stl_vector.h ****       /**
 962:/usr/include/c++/4.8/bits/stl_vector.h ****        *  @brief  Inserts given value into %vector before specified iterator.
 963:/usr/include/c++/4.8/bits/stl_vector.h ****        *  @param  __position  An iterator into the %vector.
 964:/usr/include/c++/4.8/bits/stl_vector.h ****        *  @param  __x  Data to be inserted.
 965:/usr/include/c++/4.8/bits/stl_vector.h ****        *  @return  An iterator that points to the inserted data.
 966:/usr/include/c++/4.8/bits/stl_vector.h ****        *
 967:/usr/include/c++/4.8/bits/stl_vector.h ****        *  This function will insert a copy of the given value before
 968:/usr/include/c++/4.8/bits/stl_vector.h ****        *  the specified location.  Note that this kind of operation
 969:/usr/include/c++/4.8/bits/stl_vector.h ****        *  could be expensive for a %vector and if it is frequently
 970:/usr/include/c++/4.8/bits/stl_vector.h ****        *  used the user should consider using std::list.
 971:/usr/include/c++/4.8/bits/stl_vector.h ****        */
 972:/usr/include/c++/4.8/bits/stl_vector.h ****       iterator
 973:/usr/include/c++/4.8/bits/stl_vector.h ****       insert(iterator __position, const value_type& __x);
 974:/usr/include/c++/4.8/bits/stl_vector.h **** 
 975:/usr/include/c++/4.8/bits/stl_vector.h **** #if __cplusplus >= 201103L
 976:/usr/include/c++/4.8/bits/stl_vector.h ****       /**
 977:/usr/include/c++/4.8/bits/stl_vector.h ****        *  @brief  Inserts given rvalue into %vector before specified iterator.
 978:/usr/include/c++/4.8/bits/stl_vector.h ****        *  @param  __position  An iterator into the %vector.
 979:/usr/include/c++/4.8/bits/stl_vector.h ****        *  @param  __x  Data to be inserted.
 980:/usr/include/c++/4.8/bits/stl_vector.h ****        *  @return  An iterator that points to the inserted data.
 981:/usr/include/c++/4.8/bits/stl_vector.h ****        *
 982:/usr/include/c++/4.8/bits/stl_vector.h ****        *  This function will insert a copy of the given rvalue before
 983:/usr/include/c++/4.8/bits/stl_vector.h ****        *  the specified location.  Note that this kind of operation
 984:/usr/include/c++/4.8/bits/stl_vector.h ****        *  could be expensive for a %vector and if it is frequently
 985:/usr/include/c++/4.8/bits/stl_vector.h ****        *  used the user should consider using std::list.
 986:/usr/include/c++/4.8/bits/stl_vector.h ****        */
 987:/usr/include/c++/4.8/bits/stl_vector.h ****       iterator
 988:/usr/include/c++/4.8/bits/stl_vector.h ****       insert(iterator __position, value_type&& __x)
 989:/usr/include/c++/4.8/bits/stl_vector.h ****       { return emplace(__position, std::move(__x)); }
 990:/usr/include/c++/4.8/bits/stl_vector.h **** 
 991:/usr/include/c++/4.8/bits/stl_vector.h ****       /**
 992:/usr/include/c++/4.8/bits/stl_vector.h ****        *  @brief  Inserts an initializer_list into the %vector.
 993:/usr/include/c++/4.8/bits/stl_vector.h ****        *  @param  __position  An iterator into the %vector.
 994:/usr/include/c++/4.8/bits/stl_vector.h ****        *  @param  __l  An initializer_list.
 995:/usr/include/c++/4.8/bits/stl_vector.h ****        *
 996:/usr/include/c++/4.8/bits/stl_vector.h ****        *  This function will insert copies of the data in the 
 997:/usr/include/c++/4.8/bits/stl_vector.h ****        *  initializer_list @a l into the %vector before the location
 998:/usr/include/c++/4.8/bits/stl_vector.h ****        *  specified by @a position.
 999:/usr/include/c++/4.8/bits/stl_vector.h ****        *
1000:/usr/include/c++/4.8/bits/stl_vector.h ****        *  Note that this kind of operation could be expensive for a
1001:/usr/include/c++/4.8/bits/stl_vector.h ****        *  %vector and if it is frequently used the user should
1002:/usr/include/c++/4.8/bits/stl_vector.h ****        *  consider using std::list.
1003:/usr/include/c++/4.8/bits/stl_vector.h ****        */
1004:/usr/include/c++/4.8/bits/stl_vector.h ****       void
1005:/usr/include/c++/4.8/bits/stl_vector.h ****       insert(iterator __position, initializer_list<value_type> __l)
1006:/usr/include/c++/4.8/bits/stl_vector.h ****       { this->insert(__position, __l.begin(), __l.end()); }
1007:/usr/include/c++/4.8/bits/stl_vector.h **** #endif
1008:/usr/include/c++/4.8/bits/stl_vector.h **** 
1009:/usr/include/c++/4.8/bits/stl_vector.h ****       /**
1010:/usr/include/c++/4.8/bits/stl_vector.h ****        *  @brief  Inserts a number of copies of given data into the %vector.
1011:/usr/include/c++/4.8/bits/stl_vector.h ****        *  @param  __position  An iterator into the %vector.
1012:/usr/include/c++/4.8/bits/stl_vector.h ****        *  @param  __n  Number of elements to be inserted.
1013:/usr/include/c++/4.8/bits/stl_vector.h ****        *  @param  __x  Data to be inserted.
1014:/usr/include/c++/4.8/bits/stl_vector.h ****        *
1015:/usr/include/c++/4.8/bits/stl_vector.h ****        *  This function will insert a specified number of copies of
1016:/usr/include/c++/4.8/bits/stl_vector.h ****        *  the given data before the location specified by @a position.
1017:/usr/include/c++/4.8/bits/stl_vector.h ****        *
1018:/usr/include/c++/4.8/bits/stl_vector.h ****        *  Note that this kind of operation could be expensive for a
1019:/usr/include/c++/4.8/bits/stl_vector.h ****        *  %vector and if it is frequently used the user should
1020:/usr/include/c++/4.8/bits/stl_vector.h ****        *  consider using std::list.
1021:/usr/include/c++/4.8/bits/stl_vector.h ****        */
1022:/usr/include/c++/4.8/bits/stl_vector.h ****       void
1023:/usr/include/c++/4.8/bits/stl_vector.h ****       insert(iterator __position, size_type __n, const value_type& __x)
1024:/usr/include/c++/4.8/bits/stl_vector.h ****       { _M_fill_insert(__position, __n, __x); }
1025:/usr/include/c++/4.8/bits/stl_vector.h **** 
1026:/usr/include/c++/4.8/bits/stl_vector.h ****       /**
1027:/usr/include/c++/4.8/bits/stl_vector.h ****        *  @brief  Inserts a range into the %vector.
1028:/usr/include/c++/4.8/bits/stl_vector.h ****        *  @param  __position  An iterator into the %vector.
1029:/usr/include/c++/4.8/bits/stl_vector.h ****        *  @param  __first  An input iterator.
1030:/usr/include/c++/4.8/bits/stl_vector.h ****        *  @param  __last   An input iterator.
1031:/usr/include/c++/4.8/bits/stl_vector.h ****        *
1032:/usr/include/c++/4.8/bits/stl_vector.h ****        *  This function will insert copies of the data in the range
1033:/usr/include/c++/4.8/bits/stl_vector.h ****        *  [__first,__last) into the %vector before the location specified
1034:/usr/include/c++/4.8/bits/stl_vector.h ****        *  by @a pos.
1035:/usr/include/c++/4.8/bits/stl_vector.h ****        *
1036:/usr/include/c++/4.8/bits/stl_vector.h ****        *  Note that this kind of operation could be expensive for a
1037:/usr/include/c++/4.8/bits/stl_vector.h ****        *  %vector and if it is frequently used the user should
1038:/usr/include/c++/4.8/bits/stl_vector.h ****        *  consider using std::list.
1039:/usr/include/c++/4.8/bits/stl_vector.h ****        */
1040:/usr/include/c++/4.8/bits/stl_vector.h **** #if __cplusplus >= 201103L
1041:/usr/include/c++/4.8/bits/stl_vector.h ****       template<typename _InputIterator,
1042:/usr/include/c++/4.8/bits/stl_vector.h **** 	       typename = std::_RequireInputIter<_InputIterator>>
1043:/usr/include/c++/4.8/bits/stl_vector.h ****         void
1044:/usr/include/c++/4.8/bits/stl_vector.h ****         insert(iterator __position, _InputIterator __first,
1045:/usr/include/c++/4.8/bits/stl_vector.h **** 	       _InputIterator __last)
1046:/usr/include/c++/4.8/bits/stl_vector.h ****         { _M_insert_dispatch(__position, __first, __last, __false_type()); }
1047:/usr/include/c++/4.8/bits/stl_vector.h **** #else
1048:/usr/include/c++/4.8/bits/stl_vector.h ****       template<typename _InputIterator>
1049:/usr/include/c++/4.8/bits/stl_vector.h ****         void
1050:/usr/include/c++/4.8/bits/stl_vector.h ****         insert(iterator __position, _InputIterator __first,
1051:/usr/include/c++/4.8/bits/stl_vector.h **** 	       _InputIterator __last)
1052:/usr/include/c++/4.8/bits/stl_vector.h ****         {
1053:/usr/include/c++/4.8/bits/stl_vector.h **** 	  // Check whether it's an integral type.  If so, it's not an iterator.
1054:/usr/include/c++/4.8/bits/stl_vector.h **** 	  typedef typename std::__is_integer<_InputIterator>::__type _Integral;
1055:/usr/include/c++/4.8/bits/stl_vector.h **** 	  _M_insert_dispatch(__position, __first, __last, _Integral());
1056:/usr/include/c++/4.8/bits/stl_vector.h **** 	}
1057:/usr/include/c++/4.8/bits/stl_vector.h **** #endif
1058:/usr/include/c++/4.8/bits/stl_vector.h **** 
1059:/usr/include/c++/4.8/bits/stl_vector.h ****       /**
1060:/usr/include/c++/4.8/bits/stl_vector.h ****        *  @brief  Remove element at given position.
1061:/usr/include/c++/4.8/bits/stl_vector.h ****        *  @param  __position  Iterator pointing to element to be erased.
1062:/usr/include/c++/4.8/bits/stl_vector.h ****        *  @return  An iterator pointing to the next element (or end()).
1063:/usr/include/c++/4.8/bits/stl_vector.h ****        *
1064:/usr/include/c++/4.8/bits/stl_vector.h ****        *  This function will erase the element at the given position and thus
1065:/usr/include/c++/4.8/bits/stl_vector.h ****        *  shorten the %vector by one.
1066:/usr/include/c++/4.8/bits/stl_vector.h ****        *
1067:/usr/include/c++/4.8/bits/stl_vector.h ****        *  Note This operation could be expensive and if it is
1068:/usr/include/c++/4.8/bits/stl_vector.h ****        *  frequently used the user should consider using std::list.
1069:/usr/include/c++/4.8/bits/stl_vector.h ****        *  The user is also cautioned that this function only erases
1070:/usr/include/c++/4.8/bits/stl_vector.h ****        *  the element, and that if the element is itself a pointer,
1071:/usr/include/c++/4.8/bits/stl_vector.h ****        *  the pointed-to memory is not touched in any way.  Managing
1072:/usr/include/c++/4.8/bits/stl_vector.h ****        *  the pointer is the user's responsibility.
1073:/usr/include/c++/4.8/bits/stl_vector.h ****        */
1074:/usr/include/c++/4.8/bits/stl_vector.h ****       iterator
1075:/usr/include/c++/4.8/bits/stl_vector.h ****       erase(iterator __position);
1076:/usr/include/c++/4.8/bits/stl_vector.h **** 
1077:/usr/include/c++/4.8/bits/stl_vector.h ****       /**
1078:/usr/include/c++/4.8/bits/stl_vector.h ****        *  @brief  Remove a range of elements.
1079:/usr/include/c++/4.8/bits/stl_vector.h ****        *  @param  __first  Iterator pointing to the first element to be erased.
1080:/usr/include/c++/4.8/bits/stl_vector.h ****        *  @param  __last  Iterator pointing to one past the last element to be
1081:/usr/include/c++/4.8/bits/stl_vector.h ****        *                  erased.
1082:/usr/include/c++/4.8/bits/stl_vector.h ****        *  @return  An iterator pointing to the element pointed to by @a __last
1083:/usr/include/c++/4.8/bits/stl_vector.h ****        *           prior to erasing (or end()).
1084:/usr/include/c++/4.8/bits/stl_vector.h ****        *
1085:/usr/include/c++/4.8/bits/stl_vector.h ****        *  This function will erase the elements in the range
1086:/usr/include/c++/4.8/bits/stl_vector.h ****        *  [__first,__last) and shorten the %vector accordingly.
1087:/usr/include/c++/4.8/bits/stl_vector.h ****        *
1088:/usr/include/c++/4.8/bits/stl_vector.h ****        *  Note This operation could be expensive and if it is
1089:/usr/include/c++/4.8/bits/stl_vector.h ****        *  frequently used the user should consider using std::list.
1090:/usr/include/c++/4.8/bits/stl_vector.h ****        *  The user is also cautioned that this function only erases
1091:/usr/include/c++/4.8/bits/stl_vector.h ****        *  the elements, and that if the elements themselves are
1092:/usr/include/c++/4.8/bits/stl_vector.h ****        *  pointers, the pointed-to memory is not touched in any way.
1093:/usr/include/c++/4.8/bits/stl_vector.h ****        *  Managing the pointer is the user's responsibility.
1094:/usr/include/c++/4.8/bits/stl_vector.h ****        */
1095:/usr/include/c++/4.8/bits/stl_vector.h ****       iterator
1096:/usr/include/c++/4.8/bits/stl_vector.h ****       erase(iterator __first, iterator __last);
1097:/usr/include/c++/4.8/bits/stl_vector.h **** 
1098:/usr/include/c++/4.8/bits/stl_vector.h ****       /**
1099:/usr/include/c++/4.8/bits/stl_vector.h ****        *  @brief  Swaps data with another %vector.
1100:/usr/include/c++/4.8/bits/stl_vector.h ****        *  @param  __x  A %vector of the same element and allocator types.
1101:/usr/include/c++/4.8/bits/stl_vector.h ****        *
1102:/usr/include/c++/4.8/bits/stl_vector.h ****        *  This exchanges the elements between two vectors in constant time.
1103:/usr/include/c++/4.8/bits/stl_vector.h ****        *  (Three pointers, so it should be quite fast.)
1104:/usr/include/c++/4.8/bits/stl_vector.h ****        *  Note that the global std::swap() function is specialized such that
1105:/usr/include/c++/4.8/bits/stl_vector.h ****        *  std::swap(v1,v2) will feed to this function.
1106:/usr/include/c++/4.8/bits/stl_vector.h ****        */
1107:/usr/include/c++/4.8/bits/stl_vector.h ****       void
1108:/usr/include/c++/4.8/bits/stl_vector.h ****       swap(vector& __x)
1109:/usr/include/c++/4.8/bits/stl_vector.h **** #if __cplusplus >= 201103L
1110:/usr/include/c++/4.8/bits/stl_vector.h **** 			noexcept(_Alloc_traits::_S_nothrow_swap())
1111:/usr/include/c++/4.8/bits/stl_vector.h **** #endif
1112:/usr/include/c++/4.8/bits/stl_vector.h ****       {
1113:/usr/include/c++/4.8/bits/stl_vector.h **** 	this->_M_impl._M_swap_data(__x._M_impl);
1114:/usr/include/c++/4.8/bits/stl_vector.h **** 	_Alloc_traits::_S_on_swap(_M_get_Tp_allocator(),
1115:/usr/include/c++/4.8/bits/stl_vector.h **** 	                          __x._M_get_Tp_allocator());
1116:/usr/include/c++/4.8/bits/stl_vector.h ****       }
1117:/usr/include/c++/4.8/bits/stl_vector.h **** 
1118:/usr/include/c++/4.8/bits/stl_vector.h ****       /**
1119:/usr/include/c++/4.8/bits/stl_vector.h ****        *  Erases all the elements.  Note that this function only erases the
1120:/usr/include/c++/4.8/bits/stl_vector.h ****        *  elements, and that if the elements themselves are pointers, the
1121:/usr/include/c++/4.8/bits/stl_vector.h ****        *  pointed-to memory is not touched in any way.  Managing the pointer is
1122:/usr/include/c++/4.8/bits/stl_vector.h ****        *  the user's responsibility.
1123:/usr/include/c++/4.8/bits/stl_vector.h ****        */
1124:/usr/include/c++/4.8/bits/stl_vector.h ****       void
1125:/usr/include/c++/4.8/bits/stl_vector.h ****       clear() _GLIBCXX_NOEXCEPT
1126:/usr/include/c++/4.8/bits/stl_vector.h ****       { _M_erase_at_end(this->_M_impl._M_start); }
1127:/usr/include/c++/4.8/bits/stl_vector.h **** 
1128:/usr/include/c++/4.8/bits/stl_vector.h ****     protected:
1129:/usr/include/c++/4.8/bits/stl_vector.h ****       /**
1130:/usr/include/c++/4.8/bits/stl_vector.h ****        *  Memory expansion handler.  Uses the member allocation function to
1131:/usr/include/c++/4.8/bits/stl_vector.h ****        *  obtain @a n bytes of memory, and then copies [first,last) into it.
1132:/usr/include/c++/4.8/bits/stl_vector.h ****        */
1133:/usr/include/c++/4.8/bits/stl_vector.h ****       template<typename _ForwardIterator>
1134:/usr/include/c++/4.8/bits/stl_vector.h ****         pointer
1135:/usr/include/c++/4.8/bits/stl_vector.h ****         _M_allocate_and_copy(size_type __n,
1136:/usr/include/c++/4.8/bits/stl_vector.h **** 			     _ForwardIterator __first, _ForwardIterator __last)
1137:/usr/include/c++/4.8/bits/stl_vector.h ****         {
1138:/usr/include/c++/4.8/bits/stl_vector.h **** 	  pointer __result = this->_M_allocate(__n);
1139:/usr/include/c++/4.8/bits/stl_vector.h **** 	  __try
1140:/usr/include/c++/4.8/bits/stl_vector.h **** 	    {
1141:/usr/include/c++/4.8/bits/stl_vector.h **** 	      std::__uninitialized_copy_a(__first, __last, __result,
1142:/usr/include/c++/4.8/bits/stl_vector.h **** 					  _M_get_Tp_allocator());
1143:/usr/include/c++/4.8/bits/stl_vector.h **** 	      return __result;
1144:/usr/include/c++/4.8/bits/stl_vector.h **** 	    }
1145:/usr/include/c++/4.8/bits/stl_vector.h **** 	  __catch(...)
1146:/usr/include/c++/4.8/bits/stl_vector.h **** 	    {
1147:/usr/include/c++/4.8/bits/stl_vector.h **** 	      _M_deallocate(__result, __n);
1148:/usr/include/c++/4.8/bits/stl_vector.h **** 	      __throw_exception_again;
1149:/usr/include/c++/4.8/bits/stl_vector.h **** 	    }
1150:/usr/include/c++/4.8/bits/stl_vector.h **** 	}
1151:/usr/include/c++/4.8/bits/stl_vector.h **** 
1152:/usr/include/c++/4.8/bits/stl_vector.h **** 
1153:/usr/include/c++/4.8/bits/stl_vector.h ****       // Internal constructor functions follow.
1154:/usr/include/c++/4.8/bits/stl_vector.h **** 
1155:/usr/include/c++/4.8/bits/stl_vector.h ****       // Called by the range constructor to implement [23.1.1]/9
1156:/usr/include/c++/4.8/bits/stl_vector.h **** 
1157:/usr/include/c++/4.8/bits/stl_vector.h ****       // _GLIBCXX_RESOLVE_LIB_DEFECTS
1158:/usr/include/c++/4.8/bits/stl_vector.h ****       // 438. Ambiguity in the "do the right thing" clause
1159:/usr/include/c++/4.8/bits/stl_vector.h ****       template<typename _Integer>
1160:/usr/include/c++/4.8/bits/stl_vector.h ****         void
1161:/usr/include/c++/4.8/bits/stl_vector.h ****         _M_initialize_dispatch(_Integer __n, _Integer __value, __true_type)
1162:/usr/include/c++/4.8/bits/stl_vector.h ****         {
1163:/usr/include/c++/4.8/bits/stl_vector.h **** 	  this->_M_impl._M_start = _M_allocate(static_cast<size_type>(__n));
1164:/usr/include/c++/4.8/bits/stl_vector.h **** 	  this->_M_impl._M_end_of_storage =
1165:/usr/include/c++/4.8/bits/stl_vector.h **** 	    this->_M_impl._M_start + static_cast<size_type>(__n);
1166:/usr/include/c++/4.8/bits/stl_vector.h **** 	  _M_fill_initialize(static_cast<size_type>(__n), __value);
1167:/usr/include/c++/4.8/bits/stl_vector.h **** 	}
1168:/usr/include/c++/4.8/bits/stl_vector.h **** 
1169:/usr/include/c++/4.8/bits/stl_vector.h ****       // Called by the range constructor to implement [23.1.1]/9
1170:/usr/include/c++/4.8/bits/stl_vector.h ****       template<typename _InputIterator>
1171:/usr/include/c++/4.8/bits/stl_vector.h ****         void
1172:/usr/include/c++/4.8/bits/stl_vector.h ****         _M_initialize_dispatch(_InputIterator __first, _InputIterator __last,
1173:/usr/include/c++/4.8/bits/stl_vector.h **** 			       __false_type)
1174:/usr/include/c++/4.8/bits/stl_vector.h ****         {
1175:/usr/include/c++/4.8/bits/stl_vector.h **** 	  typedef typename std::iterator_traits<_InputIterator>::
1176:/usr/include/c++/4.8/bits/stl_vector.h **** 	    iterator_category _IterCategory;
1177:/usr/include/c++/4.8/bits/stl_vector.h **** 	  _M_range_initialize(__first, __last, _IterCategory());
1178:/usr/include/c++/4.8/bits/stl_vector.h **** 	}
1179:/usr/include/c++/4.8/bits/stl_vector.h **** 
1180:/usr/include/c++/4.8/bits/stl_vector.h ****       // Called by the second initialize_dispatch above
1181:/usr/include/c++/4.8/bits/stl_vector.h ****       template<typename _InputIterator>
1182:/usr/include/c++/4.8/bits/stl_vector.h ****         void
1183:/usr/include/c++/4.8/bits/stl_vector.h ****         _M_range_initialize(_InputIterator __first,
1184:/usr/include/c++/4.8/bits/stl_vector.h **** 			    _InputIterator __last, std::input_iterator_tag)
1185:/usr/include/c++/4.8/bits/stl_vector.h ****         {
1186:/usr/include/c++/4.8/bits/stl_vector.h **** 	  for (; __first != __last; ++__first)
1187:/usr/include/c++/4.8/bits/stl_vector.h **** #if __cplusplus >= 201103L
1188:/usr/include/c++/4.8/bits/stl_vector.h **** 	    emplace_back(*__first);
1189:/usr/include/c++/4.8/bits/stl_vector.h **** #else
1190:/usr/include/c++/4.8/bits/stl_vector.h **** 	    push_back(*__first);
1191:/usr/include/c++/4.8/bits/stl_vector.h **** #endif
1192:/usr/include/c++/4.8/bits/stl_vector.h **** 	}
1193:/usr/include/c++/4.8/bits/stl_vector.h **** 
1194:/usr/include/c++/4.8/bits/stl_vector.h ****       // Called by the second initialize_dispatch above
1195:/usr/include/c++/4.8/bits/stl_vector.h ****       template<typename _ForwardIterator>
1196:/usr/include/c++/4.8/bits/stl_vector.h ****         void
1197:/usr/include/c++/4.8/bits/stl_vector.h ****         _M_range_initialize(_ForwardIterator __first,
1198:/usr/include/c++/4.8/bits/stl_vector.h **** 			    _ForwardIterator __last, std::forward_iterator_tag)
1199:/usr/include/c++/4.8/bits/stl_vector.h ****         {
1200:/usr/include/c++/4.8/bits/stl_vector.h **** 	  const size_type __n = std::distance(__first, __last);
1201:/usr/include/c++/4.8/bits/stl_vector.h **** 	  this->_M_impl._M_start = this->_M_allocate(__n);
1202:/usr/include/c++/4.8/bits/stl_vector.h **** 	  this->_M_impl._M_end_of_storage = this->_M_impl._M_start + __n;
1203:/usr/include/c++/4.8/bits/stl_vector.h **** 	  this->_M_impl._M_finish =
1204:/usr/include/c++/4.8/bits/stl_vector.h **** 	    std::__uninitialized_copy_a(__first, __last,
1205:/usr/include/c++/4.8/bits/stl_vector.h **** 					this->_M_impl._M_start,
1206:/usr/include/c++/4.8/bits/stl_vector.h **** 					_M_get_Tp_allocator());
1207:/usr/include/c++/4.8/bits/stl_vector.h **** 	}
1208:/usr/include/c++/4.8/bits/stl_vector.h **** 
1209:/usr/include/c++/4.8/bits/stl_vector.h ****       // Called by the first initialize_dispatch above and by the
1210:/usr/include/c++/4.8/bits/stl_vector.h ****       // vector(n,value,a) constructor.
1211:/usr/include/c++/4.8/bits/stl_vector.h ****       void
1212:/usr/include/c++/4.8/bits/stl_vector.h ****       _M_fill_initialize(size_type __n, const value_type& __value)
1213:/usr/include/c++/4.8/bits/stl_vector.h ****       {
1214:/usr/include/c++/4.8/bits/stl_vector.h **** 	std::__uninitialized_fill_n_a(this->_M_impl._M_start, __n, __value, 
1215:/usr/include/c++/4.8/bits/stl_vector.h **** 				      _M_get_Tp_allocator());
1216:/usr/include/c++/4.8/bits/stl_vector.h **** 	this->_M_impl._M_finish = this->_M_impl._M_end_of_storage;
1217:/usr/include/c++/4.8/bits/stl_vector.h ****       }
1218:/usr/include/c++/4.8/bits/stl_vector.h **** 
1219:/usr/include/c++/4.8/bits/stl_vector.h **** #if __cplusplus >= 201103L
1220:/usr/include/c++/4.8/bits/stl_vector.h ****       // Called by the vector(n) constructor.
1221:/usr/include/c++/4.8/bits/stl_vector.h ****       void
1222:/usr/include/c++/4.8/bits/stl_vector.h ****       _M_default_initialize(size_type __n)
1223:/usr/include/c++/4.8/bits/stl_vector.h ****       {
1224:/usr/include/c++/4.8/bits/stl_vector.h **** 	std::__uninitialized_default_n_a(this->_M_impl._M_start, __n, 
1225:/usr/include/c++/4.8/bits/stl_vector.h **** 					 _M_get_Tp_allocator());
1226:/usr/include/c++/4.8/bits/stl_vector.h **** 	this->_M_impl._M_finish = this->_M_impl._M_end_of_storage;
1227:/usr/include/c++/4.8/bits/stl_vector.h ****       }
1228:/usr/include/c++/4.8/bits/stl_vector.h **** #endif
1229:/usr/include/c++/4.8/bits/stl_vector.h **** 
1230:/usr/include/c++/4.8/bits/stl_vector.h ****       // Internal assign functions follow.  The *_aux functions do the actual
1231:/usr/include/c++/4.8/bits/stl_vector.h ****       // assignment work for the range versions.
1232:/usr/include/c++/4.8/bits/stl_vector.h **** 
1233:/usr/include/c++/4.8/bits/stl_vector.h ****       // Called by the range assign to implement [23.1.1]/9
1234:/usr/include/c++/4.8/bits/stl_vector.h **** 
1235:/usr/include/c++/4.8/bits/stl_vector.h ****       // _GLIBCXX_RESOLVE_LIB_DEFECTS
1236:/usr/include/c++/4.8/bits/stl_vector.h ****       // 438. Ambiguity in the "do the right thing" clause
1237:/usr/include/c++/4.8/bits/stl_vector.h ****       template<typename _Integer>
1238:/usr/include/c++/4.8/bits/stl_vector.h ****         void
1239:/usr/include/c++/4.8/bits/stl_vector.h ****         _M_assign_dispatch(_Integer __n, _Integer __val, __true_type)
1240:/usr/include/c++/4.8/bits/stl_vector.h ****         { _M_fill_assign(__n, __val); }
1241:/usr/include/c++/4.8/bits/stl_vector.h **** 
1242:/usr/include/c++/4.8/bits/stl_vector.h ****       // Called by the range assign to implement [23.1.1]/9
1243:/usr/include/c++/4.8/bits/stl_vector.h ****       template<typename _InputIterator>
1244:/usr/include/c++/4.8/bits/stl_vector.h ****         void
1245:/usr/include/c++/4.8/bits/stl_vector.h ****         _M_assign_dispatch(_InputIterator __first, _InputIterator __last,
1246:/usr/include/c++/4.8/bits/stl_vector.h **** 			   __false_type)
1247:/usr/include/c++/4.8/bits/stl_vector.h ****         {
1248:/usr/include/c++/4.8/bits/stl_vector.h **** 	  typedef typename std::iterator_traits<_InputIterator>::
1249:/usr/include/c++/4.8/bits/stl_vector.h **** 	    iterator_category _IterCategory;
1250:/usr/include/c++/4.8/bits/stl_vector.h **** 	  _M_assign_aux(__first, __last, _IterCategory());
1251:/usr/include/c++/4.8/bits/stl_vector.h **** 	}
1252:/usr/include/c++/4.8/bits/stl_vector.h **** 
1253:/usr/include/c++/4.8/bits/stl_vector.h ****       // Called by the second assign_dispatch above
1254:/usr/include/c++/4.8/bits/stl_vector.h ****       template<typename _InputIterator>
1255:/usr/include/c++/4.8/bits/stl_vector.h ****         void
1256:/usr/include/c++/4.8/bits/stl_vector.h ****         _M_assign_aux(_InputIterator __first, _InputIterator __last,
1257:/usr/include/c++/4.8/bits/stl_vector.h **** 		      std::input_iterator_tag);
1258:/usr/include/c++/4.8/bits/stl_vector.h **** 
1259:/usr/include/c++/4.8/bits/stl_vector.h ****       // Called by the second assign_dispatch above
1260:/usr/include/c++/4.8/bits/stl_vector.h ****       template<typename _ForwardIterator>
1261:/usr/include/c++/4.8/bits/stl_vector.h ****         void
1262:/usr/include/c++/4.8/bits/stl_vector.h ****         _M_assign_aux(_ForwardIterator __first, _ForwardIterator __last,
1263:/usr/include/c++/4.8/bits/stl_vector.h **** 		      std::forward_iterator_tag);
1264:/usr/include/c++/4.8/bits/stl_vector.h **** 
1265:/usr/include/c++/4.8/bits/stl_vector.h ****       // Called by assign(n,t), and the range assign when it turns out
1266:/usr/include/c++/4.8/bits/stl_vector.h ****       // to be the same thing.
1267:/usr/include/c++/4.8/bits/stl_vector.h ****       void
1268:/usr/include/c++/4.8/bits/stl_vector.h ****       _M_fill_assign(size_type __n, const value_type& __val);
1269:/usr/include/c++/4.8/bits/stl_vector.h **** 
1270:/usr/include/c++/4.8/bits/stl_vector.h **** 
1271:/usr/include/c++/4.8/bits/stl_vector.h ****       // Internal insert functions follow.
1272:/usr/include/c++/4.8/bits/stl_vector.h **** 
1273:/usr/include/c++/4.8/bits/stl_vector.h ****       // Called by the range insert to implement [23.1.1]/9
1274:/usr/include/c++/4.8/bits/stl_vector.h **** 
1275:/usr/include/c++/4.8/bits/stl_vector.h ****       // _GLIBCXX_RESOLVE_LIB_DEFECTS
1276:/usr/include/c++/4.8/bits/stl_vector.h ****       // 438. Ambiguity in the "do the right thing" clause
1277:/usr/include/c++/4.8/bits/stl_vector.h ****       template<typename _Integer>
1278:/usr/include/c++/4.8/bits/stl_vector.h ****         void
1279:/usr/include/c++/4.8/bits/stl_vector.h ****         _M_insert_dispatch(iterator __pos, _Integer __n, _Integer __val,
1280:/usr/include/c++/4.8/bits/stl_vector.h **** 			   __true_type)
1281:/usr/include/c++/4.8/bits/stl_vector.h ****         { _M_fill_insert(__pos, __n, __val); }
1282:/usr/include/c++/4.8/bits/stl_vector.h **** 
1283:/usr/include/c++/4.8/bits/stl_vector.h ****       // Called by the range insert to implement [23.1.1]/9
1284:/usr/include/c++/4.8/bits/stl_vector.h ****       template<typename _InputIterator>
1285:/usr/include/c++/4.8/bits/stl_vector.h ****         void
1286:/usr/include/c++/4.8/bits/stl_vector.h ****         _M_insert_dispatch(iterator __pos, _InputIterator __first,
1287:/usr/include/c++/4.8/bits/stl_vector.h **** 			   _InputIterator __last, __false_type)
1288:/usr/include/c++/4.8/bits/stl_vector.h ****         {
1289:/usr/include/c++/4.8/bits/stl_vector.h **** 	  typedef typename std::iterator_traits<_InputIterator>::
1290:/usr/include/c++/4.8/bits/stl_vector.h **** 	    iterator_category _IterCategory;
1291:/usr/include/c++/4.8/bits/stl_vector.h **** 	  _M_range_insert(__pos, __first, __last, _IterCategory());
1292:/usr/include/c++/4.8/bits/stl_vector.h **** 	}
1293:/usr/include/c++/4.8/bits/stl_vector.h **** 
1294:/usr/include/c++/4.8/bits/stl_vector.h ****       // Called by the second insert_dispatch above
1295:/usr/include/c++/4.8/bits/stl_vector.h ****       template<typename _InputIterator>
1296:/usr/include/c++/4.8/bits/stl_vector.h ****         void
1297:/usr/include/c++/4.8/bits/stl_vector.h ****         _M_range_insert(iterator __pos, _InputIterator __first,
1298:/usr/include/c++/4.8/bits/stl_vector.h **** 			_InputIterator __last, std::input_iterator_tag);
1299:/usr/include/c++/4.8/bits/stl_vector.h **** 
1300:/usr/include/c++/4.8/bits/stl_vector.h ****       // Called by the second insert_dispatch above
1301:/usr/include/c++/4.8/bits/stl_vector.h ****       template<typename _ForwardIterator>
1302:/usr/include/c++/4.8/bits/stl_vector.h ****         void
1303:/usr/include/c++/4.8/bits/stl_vector.h ****         _M_range_insert(iterator __pos, _ForwardIterator __first,
1304:/usr/include/c++/4.8/bits/stl_vector.h **** 			_ForwardIterator __last, std::forward_iterator_tag);
1305:/usr/include/c++/4.8/bits/stl_vector.h **** 
1306:/usr/include/c++/4.8/bits/stl_vector.h ****       // Called by insert(p,n,x), and the range insert when it turns out to be
1307:/usr/include/c++/4.8/bits/stl_vector.h ****       // the same thing.
1308:/usr/include/c++/4.8/bits/stl_vector.h ****       void
1309:/usr/include/c++/4.8/bits/stl_vector.h ****       _M_fill_insert(iterator __pos, size_type __n, const value_type& __x);
1310:/usr/include/c++/4.8/bits/stl_vector.h **** 
1311:/usr/include/c++/4.8/bits/stl_vector.h **** #if __cplusplus >= 201103L
1312:/usr/include/c++/4.8/bits/stl_vector.h ****       // Called by resize(n).
1313:/usr/include/c++/4.8/bits/stl_vector.h ****       void
1314:/usr/include/c++/4.8/bits/stl_vector.h ****       _M_default_append(size_type __n);
1315:/usr/include/c++/4.8/bits/stl_vector.h **** 
1316:/usr/include/c++/4.8/bits/stl_vector.h ****       bool
1317:/usr/include/c++/4.8/bits/stl_vector.h ****       _M_shrink_to_fit();
1318:/usr/include/c++/4.8/bits/stl_vector.h **** #endif
1319:/usr/include/c++/4.8/bits/stl_vector.h **** 
1320:/usr/include/c++/4.8/bits/stl_vector.h ****       // Called by insert(p,x)
1321:/usr/include/c++/4.8/bits/stl_vector.h **** #if __cplusplus < 201103L
1322:/usr/include/c++/4.8/bits/stl_vector.h ****       void
1323:/usr/include/c++/4.8/bits/stl_vector.h ****       _M_insert_aux(iterator __position, const value_type& __x);
1324:/usr/include/c++/4.8/bits/stl_vector.h **** #else
1325:/usr/include/c++/4.8/bits/stl_vector.h ****       template<typename... _Args>
1326:/usr/include/c++/4.8/bits/stl_vector.h ****         void
1327:/usr/include/c++/4.8/bits/stl_vector.h ****         _M_insert_aux(iterator __position, _Args&&... __args);
1328:/usr/include/c++/4.8/bits/stl_vector.h **** 
1329:/usr/include/c++/4.8/bits/stl_vector.h ****       template<typename... _Args>
1330:/usr/include/c++/4.8/bits/stl_vector.h ****         void
1331:/usr/include/c++/4.8/bits/stl_vector.h ****         _M_emplace_back_aux(_Args&&... __args);
1332:/usr/include/c++/4.8/bits/stl_vector.h **** #endif
1333:/usr/include/c++/4.8/bits/stl_vector.h **** 
1334:/usr/include/c++/4.8/bits/stl_vector.h ****       // Called by the latter.
1335:/usr/include/c++/4.8/bits/stl_vector.h ****       size_type
1336:/usr/include/c++/4.8/bits/stl_vector.h ****       _M_check_len(size_type __n, const char* __s) const
1337:/usr/include/c++/4.8/bits/stl_vector.h ****       {
1338:/usr/include/c++/4.8/bits/stl_vector.h **** 	if (max_size() - size() < __n)
1339:/usr/include/c++/4.8/bits/stl_vector.h **** 	  __throw_length_error(__N(__s));
1340:/usr/include/c++/4.8/bits/stl_vector.h **** 
1341:/usr/include/c++/4.8/bits/stl_vector.h **** 	const size_type __len = size() + std::max(size(), __n);
 204              		.loc 3 1341 0
 205 00a0 488D0412 		leaq	(%rdx,%rdx), %rax
 206              	.LVL19:
1342:/usr/include/c++/4.8/bits/stl_vector.h **** 	return (__len < size() || __len > max_size()) ? max_size() : __len;
 207              		.loc 3 1342 0
 208 00a4 4839C2   		cmpq	%rax, %rdx
 209 00a7 760C     		jbe	.L22
 210 00a9 49C7C4FC 		movq	$-4, %r12
 210      FFFFFF
 211 00b0 E96EFFFF 		jmp	.L3
 211      FF
 212              	.L22:
 213              	.LVL20:
 214 00b5 48B9FFFF 		movabsq	$4611686018427387903, %rcx
 214      FFFFFFFF 
 214      FF3F
 215 00bf 48C1E203 		salq	$3, %rdx
 216 00c3 49C7C4FC 		movq	$-4, %r12
 216      FFFFFF
 217 00ca 4839C8   		cmpq	%rcx, %rax
 218 00cd 4C0F46E2 		cmovbe	%rdx, %r12
 219 00d1 E94DFFFF 		jmp	.L3
 219      FF
 220              	.LBE298:
 221              	.LBE326:
 222              	.LBE328:
 223              		.cfi_endproc
 224              	.LFE1704:
 225              		.size	_ZNSt6vectorIiSaIiEE19_M_emplace_back_auxIIRKiEEEvDpOT_, .-_ZNSt6vectorIiSaIiEE19_M_emplace_
 226              		.weak	_ZNSt6vectorIiSaIiEE19_M_emplace_back_auxIJRKiEEEvDpOT_
 227              		.set	_ZNSt6vectorIiSaIiEE19_M_emplace_back_auxIJRKiEEEvDpOT_,_ZNSt6vectorIiSaIiEE19_M_emplace_back
 228              		.section	.rodata.str1.1,"aMS",@progbits,1
 229              	.LC0:
 230 0000 61646465 		.string	"added"
 230      6400
 231              		.section	.text.startup,"ax",@progbits
 232              		.p2align 4,,15
 233              		.globl	main
 234              		.type	main, @function
 235              	main:
 236              	.LFB1578:
 237              		.file 5 "array.cpp"
   1:array.cpp     **** #include <iostream>
   2:array.cpp     **** #include <vector>
   3:array.cpp     **** 
   4:array.cpp     **** using namespace std;
   5:array.cpp     **** 
   6:array.cpp     **** int main() {
 238              		.loc 5 6 0
 239              		.cfi_startproc
 240              	.LVL21:
 241 0000 4157     		pushq	%r15
 242              		.cfi_def_cfa_offset 16
 243              		.cfi_offset 15, -16
 244              	.LBB353:
   7:array.cpp     ****   int n = 1e6;
   8:array.cpp     ****   int q = 1e7;
   9:array.cpp     ****   int run = 5;
  10:array.cpp     **** 
  11:array.cpp     **** 
  12:array.cpp     ****   srand(1);
 245              		.loc 5 12 0
 246 0002 BF010000 		movl	$1, %edi
 246      00
 247              	.LBE353:
   6:array.cpp     ****   int n = 1e6;
 248              		.loc 5 6 0
 249 0007 4156     		pushq	%r14
 250              		.cfi_def_cfa_offset 24
 251              		.cfi_offset 14, -24
 252 0009 4155     		pushq	%r13
 253              		.cfi_def_cfa_offset 32
 254              		.cfi_offset 13, -32
 255 000b 4154     		pushq	%r12
 256              		.cfi_def_cfa_offset 40
 257              		.cfi_offset 12, -40
 258 000d 55       		pushq	%rbp
 259              		.cfi_def_cfa_offset 48
 260              		.cfi_offset 6, -48
 261 000e 53       		pushq	%rbx
 262              		.cfi_def_cfa_offset 56
 263              		.cfi_offset 3, -56
 264 000f 4883EC18 		subq	$24, %rsp
 265              		.cfi_def_cfa_offset 80
 266              	.LBB396:
 267              		.loc 5 12 0
 268 0013 E8000000 		call	srand
 268      00
 269              	.LVL22:
  13:array.cpp     ****   vector<int> *v = new vector<int>[n]();
 270              		.loc 5 13 0
 271 0018 BF08366E 		movl	$24000008, %edi
 271      01
 272 001d E8000000 		call	_Znam
 272      00
 273              	.LVL23:
 274 0022 4C8D6008 		leaq	8(%rax), %r12
 275 0026 48C70040 		movq	$1000000, (%rax)
 275      420F00
 276 002d 48050836 		addq	$24000008, %rax
 276      6E01
 277 0033 4C89E2   		movq	%r12, %rdx
 278 0036 662E0F1F 		.p2align 4,,10
 278      84000000 
 278      0000
 279              		.p2align 3
 280              	.L25:
 281              	.LVL24:
 282              	.LBB354:
 283              	.LBB355:
 284              	.LBB356:
 285              	.LBB357:
  87:/usr/include/c++/4.8/bits/stl_vector.h **** 	{ }
 286              		.loc 3 87 0
 287 0040 48C70200 		movq	$0, (%rdx)
 287      000000
 288 0047 48C74208 		movq	$0, 8(%rdx)
 288      00000000 
 289 004f 4883C218 		addq	$24, %rdx
 290              	.LVL25:
 291 0053 48C742F8 		movq	$0, -8(%rdx)
 291      00000000 
 292              	.LBE357:
 293              	.LBE356:
 294              	.LBE355:
 295              	.LBE354:
 296              		.loc 5 13 0
 297 005b 4839C2   		cmpq	%rax, %rdx
 298 005e 75E0     		jne	.L25
 299              	.LVL26:
 300 0060 BD40420F 		movl	$1000000, %ebp
 300      00
 301 0065 EB1D     		jmp	.L30
 302              	.LVL27:
 303 0067 660F1F84 		.p2align 4,,10
 303      00000000 
 303      00
 304              		.p2align 3
 305              	.L49:
 306              	.LBB358:
 307              	.LBB359:
 308              	.LBB360:
 309              	.LBB361:
 310              	.LBB362:
 311              	.LBB363:
 312              	.LBB364:
 313              		.loc 4 120 0
 314 0070 4885C0   		testq	%rax, %rax
 315 0073 7402     		je	.L27
 316 0075 8930     		movl	%esi, (%rax)
 317              	.L27:
 318              	.LBE364:
 319              	.LBE363:
 320              	.LBE362:
 321              	.LBE361:
 907:/usr/include/c++/4.8/bits/stl_vector.h **** 	  }
 322              		.loc 3 907 0
 323 0077 4883C004 		addq	$4, %rax
 324              	.LVL28:
 325              	.LBE360:
 326              	.LBE359:
  14:array.cpp     **** 
  15:array.cpp     ****   int a,b;
  16:array.cpp     ****   for (int i = 0;i < n;i++) {
 327              		.loc 5 16 0
 328 007b 83ED01   		subl	$1, %ebp
 329              	.LVL29:
 330              	.LBB367:
 331              	.LBB365:
 907:/usr/include/c++/4.8/bits/stl_vector.h **** 	  }
 332              		.loc 3 907 0
 333 007e 48894708 		movq	%rax, 8(%rdi)
 334              	.LVL30:
 335              	.LBE365:
 336              	.LBE367:
 337              		.loc 5 16 0
 338 0082 7467     		je	.L48
 339              	.LVL31:
 340              	.L30:
  17:array.cpp     ****     a = rand() % n;
 341              		.loc 5 17 0
 342 0084 E8000000 		call	rand
 342      00
 343              	.LVL32:
 344 0089 89C3     		movl	%eax, %ebx
 345              	.LVL33:
  18:array.cpp     ****     b = rand() % n;
 346              		.loc 5 18 0
 347 008b E8000000 		call	rand
 347      00
 348              	.LVL34:
 349 0090 BF83DE1B 		movl	$1125899907, %edi
 349      43
 350 0095 89C6     		movl	%eax, %esi
 351 0097 F7EF     		imull	%edi
 352 0099 89F0     		movl	%esi, %eax
 353 009b C1F81F   		sarl	$31, %eax
 354 009e 89D1     		movl	%edx, %ecx
 355 00a0 C1F912   		sarl	$18, %ecx
 356 00a3 29C1     		subl	%eax, %ecx
  17:array.cpp     ****     a = rand() % n;
 357              		.loc 5 17 0
 358 00a5 89D8     		movl	%ebx, %eax
 359 00a7 F7EF     		imull	%edi
 360 00a9 89D8     		movl	%ebx, %eax
 361 00ab C1F81F   		sarl	$31, %eax
 362 00ae C1FA12   		sarl	$18, %edx
 363 00b1 29C2     		subl	%eax, %edx
 364 00b3 69D24042 		imull	$1000000, %edx, %edx
 364      0F00
 365              		.loc 5 18 0
 366 00b9 69C94042 		imull	$1000000, %ecx, %ecx
 366      0F00
  17:array.cpp     ****     a = rand() % n;
 367              		.loc 5 17 0
 368 00bf 29D3     		subl	%edx, %ebx
 369              	.LVL35:
  19:array.cpp     ****     v[a].push_back(b);
 370              		.loc 5 19 0
 371 00c1 4863DB   		movslq	%ebx, %rbx
  18:array.cpp     ****     b = rand() % n;
 372              		.loc 5 18 0
 373 00c4 29CE     		subl	%ecx, %esi
 374              		.loc 5 19 0
 375 00c6 488D045B 		leaq	(%rbx,%rbx,2), %rax
  18:array.cpp     ****     b = rand() % n;
 376              		.loc 5 18 0
 377 00ca 8974240C 		movl	%esi, 12(%rsp)
 378              		.loc 5 19 0
 379 00ce 498D3CC4 		leaq	(%r12,%rax,8), %rdi
 903:/usr/include/c++/4.8/bits/stl_vector.h **** 	  {
 383              		.loc 3 903 0
 384 00d2 488B4708 		movq	8(%rdi), %rax
 385 00d6 483B4710 		cmpq	16(%rdi), %rax
 386 00da 7594     		jne	.L49
 911:/usr/include/c++/4.8/bits/stl_vector.h **** #else
 387              		.loc 3 911 0
 388 00dc 488D7424 		leaq	12(%rsp), %rsi
 388      0C
 389              	.LVL37:
 390 00e1 E8000000 		call	_ZNSt6vectorIiSaIiEE19_M_emplace_back_auxIIRKiEEEvDpOT_
 390      00
 391              	.LVL38:
 392              	.LBE366:
 393              	.LBE368:
  16:array.cpp     ****     a = rand() % n;
 394              		.loc 5 16 0
 395 00e6 83ED01   		subl	$1, %ebp
 396              	.LVL39:
 397 00e9 7599     		jne	.L30
 398              	.LVL40:
 399              	.L48:
 400              	.LBE358:
  20:array.cpp     ****   }
  21:array.cpp     ****   cout << "added" << endl;
 401              		.loc 5 21 0
 402 00eb BE000000 		movl	$.LC0, %esi
 402      00
 403 00f0 BF000000 		movl	$_ZSt4cout, %edi
 403      00
 404              	.LBB369:
 405              	.LBB370:
 406              		.file 6 "/usr/include/c++/4.8/ostream"
   1:/usr/include/c++/4.8/ostream **** // Output streams -*- C++ -*-
   2:/usr/include/c++/4.8/ostream **** 
   3:/usr/include/c++/4.8/ostream **** // Copyright (C) 1997-2013 Free Software Foundation, Inc.
   4:/usr/include/c++/4.8/ostream **** //
   5:/usr/include/c++/4.8/ostream **** // This file is part of the GNU ISO C++ Library.  This library is free
   6:/usr/include/c++/4.8/ostream **** // software; you can redistribute it and/or modify it under the
   7:/usr/include/c++/4.8/ostream **** // terms of the GNU General Public License as published by the
   8:/usr/include/c++/4.8/ostream **** // Free Software Foundation; either version 3, or (at your option)
   9:/usr/include/c++/4.8/ostream **** // any later version.
  10:/usr/include/c++/4.8/ostream **** 
  11:/usr/include/c++/4.8/ostream **** // This library is distributed in the hope that it will be useful,
  12:/usr/include/c++/4.8/ostream **** // but WITHOUT ANY WARRANTY; without even the implied warranty of
  13:/usr/include/c++/4.8/ostream **** // MERCHANTABILITY or FITNESS FOR A PARTICULAR PURPOSE.  See the
  14:/usr/include/c++/4.8/ostream **** // GNU General Public License for more details.
  15:/usr/include/c++/4.8/ostream **** 
  16:/usr/include/c++/4.8/ostream **** // Under Section 7 of GPL version 3, you are granted additional
  17:/usr/include/c++/4.8/ostream **** // permissions described in the GCC Runtime Library Exception, version
  18:/usr/include/c++/4.8/ostream **** // 3.1, as published by the Free Software Foundation.
  19:/usr/include/c++/4.8/ostream **** 
  20:/usr/include/c++/4.8/ostream **** // You should have received a copy of the GNU General Public License and
  21:/usr/include/c++/4.8/ostream **** // a copy of the GCC Runtime Library Exception along with this program;
  22:/usr/include/c++/4.8/ostream **** // see the files COPYING3 and COPYING.RUNTIME respectively.  If not, see
  23:/usr/include/c++/4.8/ostream **** // <http://www.gnu.org/licenses/>.
  24:/usr/include/c++/4.8/ostream **** 
  25:/usr/include/c++/4.8/ostream **** /** @file include/ostream
  26:/usr/include/c++/4.8/ostream ****  *  This is a Standard C++ Library header.
  27:/usr/include/c++/4.8/ostream ****  */
  28:/usr/include/c++/4.8/ostream **** 
  29:/usr/include/c++/4.8/ostream **** //
  30:/usr/include/c++/4.8/ostream **** // ISO C++ 14882: 27.6.2  Output streams
  31:/usr/include/c++/4.8/ostream **** //
  32:/usr/include/c++/4.8/ostream **** 
  33:/usr/include/c++/4.8/ostream **** #ifndef _GLIBCXX_OSTREAM
  34:/usr/include/c++/4.8/ostream **** #define _GLIBCXX_OSTREAM 1
  35:/usr/include/c++/4.8/ostream **** 
  36:/usr/include/c++/4.8/ostream **** #pragma GCC system_header
  37:/usr/include/c++/4.8/ostream **** 
  38:/usr/include/c++/4.8/ostream **** #include <ios>
  39:/usr/include/c++/4.8/ostream **** #include <bits/ostream_insert.h>
  40:/usr/include/c++/4.8/ostream **** 
  41:/usr/include/c++/4.8/ostream **** namespace std _GLIBCXX_VISIBILITY(default)
  42:/usr/include/c++/4.8/ostream **** {
  43:/usr/include/c++/4.8/ostream **** _GLIBCXX_BEGIN_NAMESPACE_VERSION
  44:/usr/include/c++/4.8/ostream **** 
  45:/usr/include/c++/4.8/ostream ****   /**
  46:/usr/include/c++/4.8/ostream ****    *  @brief  Template class basic_ostream.
  47:/usr/include/c++/4.8/ostream ****    *  @ingroup io
  48:/usr/include/c++/4.8/ostream ****    *
  49:/usr/include/c++/4.8/ostream ****    *  @tparam _CharT  Type of character stream.
  50:/usr/include/c++/4.8/ostream ****    *  @tparam _Traits  Traits for character type, defaults to
  51:/usr/include/c++/4.8/ostream ****    *                   char_traits<_CharT>.
  52:/usr/include/c++/4.8/ostream ****    *
  53:/usr/include/c++/4.8/ostream ****    *  This is the base class for all output streams.  It provides text
  54:/usr/include/c++/4.8/ostream ****    *  formatting of all builtin types, and communicates with any class
  55:/usr/include/c++/4.8/ostream ****    *  derived from basic_streambuf to do the actual output.
  56:/usr/include/c++/4.8/ostream ****   */
  57:/usr/include/c++/4.8/ostream ****   template<typename _CharT, typename _Traits>
  58:/usr/include/c++/4.8/ostream ****     class basic_ostream : virtual public basic_ios<_CharT, _Traits>
  59:/usr/include/c++/4.8/ostream ****     {
  60:/usr/include/c++/4.8/ostream ****     public:
  61:/usr/include/c++/4.8/ostream ****       // Types (inherited from basic_ios):
  62:/usr/include/c++/4.8/ostream ****       typedef _CharT			 		char_type;
  63:/usr/include/c++/4.8/ostream ****       typedef typename _Traits::int_type 		int_type;
  64:/usr/include/c++/4.8/ostream ****       typedef typename _Traits::pos_type 		pos_type;
  65:/usr/include/c++/4.8/ostream ****       typedef typename _Traits::off_type 		off_type;
  66:/usr/include/c++/4.8/ostream ****       typedef _Traits			 		traits_type;
  67:/usr/include/c++/4.8/ostream **** 
  68:/usr/include/c++/4.8/ostream ****       // Non-standard Types:
  69:/usr/include/c++/4.8/ostream ****       typedef basic_streambuf<_CharT, _Traits> 		__streambuf_type;
  70:/usr/include/c++/4.8/ostream ****       typedef basic_ios<_CharT, _Traits>		__ios_type;
  71:/usr/include/c++/4.8/ostream ****       typedef basic_ostream<_CharT, _Traits>		__ostream_type;
  72:/usr/include/c++/4.8/ostream ****       typedef num_put<_CharT, ostreambuf_iterator<_CharT, _Traits> >
  73:/usr/include/c++/4.8/ostream ****       							__num_put_type;
  74:/usr/include/c++/4.8/ostream ****       typedef ctype<_CharT>	      			__ctype_type;
  75:/usr/include/c++/4.8/ostream **** 
  76:/usr/include/c++/4.8/ostream ****       /**
  77:/usr/include/c++/4.8/ostream ****        *  @brief  Base constructor.
  78:/usr/include/c++/4.8/ostream ****        *
  79:/usr/include/c++/4.8/ostream ****        *  This ctor is almost never called by the user directly, rather from
  80:/usr/include/c++/4.8/ostream ****        *  derived classes' initialization lists, which pass a pointer to
  81:/usr/include/c++/4.8/ostream ****        *  their own stream buffer.
  82:/usr/include/c++/4.8/ostream ****       */
  83:/usr/include/c++/4.8/ostream ****       explicit
  84:/usr/include/c++/4.8/ostream ****       basic_ostream(__streambuf_type* __sb)
  85:/usr/include/c++/4.8/ostream ****       { this->init(__sb); }
  86:/usr/include/c++/4.8/ostream **** 
  87:/usr/include/c++/4.8/ostream ****       /**
  88:/usr/include/c++/4.8/ostream ****        *  @brief  Base destructor.
  89:/usr/include/c++/4.8/ostream ****        *
  90:/usr/include/c++/4.8/ostream ****        *  This does very little apart from providing a virtual base dtor.
  91:/usr/include/c++/4.8/ostream ****       */
  92:/usr/include/c++/4.8/ostream ****       virtual
  93:/usr/include/c++/4.8/ostream ****       ~basic_ostream() { }
  94:/usr/include/c++/4.8/ostream **** 
  95:/usr/include/c++/4.8/ostream ****       /// Safe prefix/suffix operations.
  96:/usr/include/c++/4.8/ostream ****       class sentry;
  97:/usr/include/c++/4.8/ostream ****       friend class sentry;
  98:/usr/include/c++/4.8/ostream **** 
  99:/usr/include/c++/4.8/ostream ****       //@{
 100:/usr/include/c++/4.8/ostream ****       /**
 101:/usr/include/c++/4.8/ostream ****        *  @brief  Interface for manipulators.
 102:/usr/include/c++/4.8/ostream ****        *
 103:/usr/include/c++/4.8/ostream ****        *  Manipulators such as @c std::endl and @c std::hex use these
 104:/usr/include/c++/4.8/ostream ****        *  functions in constructs like "std::cout << std::endl".  For more
 105:/usr/include/c++/4.8/ostream ****        *  information, see the iomanip header.
 106:/usr/include/c++/4.8/ostream ****       */
 107:/usr/include/c++/4.8/ostream ****       __ostream_type&
 108:/usr/include/c++/4.8/ostream ****       operator<<(__ostream_type& (*__pf)(__ostream_type&))
 109:/usr/include/c++/4.8/ostream ****       {
 110:/usr/include/c++/4.8/ostream **** 	// _GLIBCXX_RESOLVE_LIB_DEFECTS
 111:/usr/include/c++/4.8/ostream **** 	// DR 60. What is a formatted input function?
 112:/usr/include/c++/4.8/ostream **** 	// The inserters for manipulators are *not* formatted output functions.
 113:/usr/include/c++/4.8/ostream **** 	return __pf(*this);
 407              		.loc 6 113 0
 408 00f5 41BE0500 		movl	$5, %r14d
 408      0000
 409              	.LBE370:
 410              	.LBE369:
 411              		.loc 5 21 0
 412 00fb E8000000 		call	_ZStlsISt11char_traitsIcEERSt13basic_ostreamIcT_ES5_PKc
 412      00
 413              	.LVL41:
 414              	.LBB373:
 415              	.LBB371:
 416              		.loc 6 113 0
 417 0100 4531ED   		xorl	%r13d, %r13d
 418 0103 4889C7   		movq	%rax, %rdi
 419              	.LBE371:
 420              	.LBE373:
 421              	.LBB374:
 422              	.LBB375:
 423              	.LBB376:
  22:array.cpp     ****     
  23:array.cpp     **** 
  24:array.cpp     ****   int sum = 0;
  25:array.cpp     ****   for (int j = 0;j < run;j++)
  26:array.cpp     ****     for (int i = 0;i < q;i++) {
  27:array.cpp     ****       a = rand() % n;
  28:array.cpp     ****       b = rand() % n;
 424              		.loc 5 28 0
 425 0106 BD83DE1B 		movl	$1125899907, %ebp
 425      43
 426              	.LBE376:
 427              	.LBE375:
 428              	.LBE374:
 429              	.LBB390:
 430              	.LBB372:
 431              		.loc 6 113 0
 432 010b E8000000 		call	_ZSt4endlIcSt11char_traitsIcEERSt13basic_ostreamIT_T0_ES6_
 432      00
 433              	.LVL42:
 434              	.L31:
 435              	.LBE372:
 436              	.LBE390:
  13:array.cpp     **** 
 437              		.loc 5 13 0 discriminator 1
 438 0110 BB809698 		movl	$10000000, %ebx
 438      00
 439              	.LVL43:
 440              		.p2align 4,,10
 441 0115 0F1F00   		.p2align 3
 442              	.L39:
 443              	.LBB391:
 444              	.LBB387:
 445              	.LBB384:
  27:array.cpp     ****       b = rand() % n;
 446              		.loc 5 27 0
 447 0118 E8000000 		call	rand
 447      00
 448              	.LVL44:
 449 011d 4189C7   		movl	%eax, %r15d
 450              	.LVL45:
 451              		.loc 5 28 0
 452 0120 E8000000 		call	rand
 452      00
 453              	.LVL46:
 454 0125 89C6     		movl	%eax, %esi
 455 0127 F7ED     		imull	%ebp
 456 0129 89F0     		movl	%esi, %eax
 457 012b C1F81F   		sarl	$31, %eax
 458 012e 89D1     		movl	%edx, %ecx
 459 0130 C1F912   		sarl	$18, %ecx
 460 0133 29C1     		subl	%eax, %ecx
  27:array.cpp     ****       b = rand() % n;
 461              		.loc 5 27 0
 462 0135 4489F8   		movl	%r15d, %eax
 463 0138 F7ED     		imull	%ebp
 464 013a 4489F8   		movl	%r15d, %eax
 465 013d C1F81F   		sarl	$31, %eax
 466 0140 C1FA12   		sarl	$18, %edx
 467 0143 29C2     		subl	%eax, %edx
 468 0145 69D24042 		imull	$1000000, %edx, %edx
 468      0F00
 469              		.loc 5 28 0
 470 014b 69C94042 		imull	$1000000, %ecx, %ecx
 470      0F00
  27:array.cpp     ****       b = rand() % n;
 471              		.loc 5 27 0
 472 0151 4129D7   		subl	%edx, %r15d
 473              	.LVL47:
 474              	.LBB377:
  29:array.cpp     ****       for (size_t k = 0;k < v[a].size();k++) {
 475              		.loc 5 29 0
 476 0154 4D63FF   		movslq	%r15d, %r15
  28:array.cpp     ****       for (size_t k = 0;k < v[a].size();k++) {
 478              		.loc 5 28 0
 479 0157 29CE     		subl	%ecx, %esi

 481              		.loc 5 29 0
 482 0159 4B8D047F 		leaq	(%r15,%r15,2), %rax
  28:array.cpp     ****       for (size_t k = 0;k < v[a].size();k++) {
 484              		.loc 5 28 0
 485 015d 89F1     		movl	%esi, %ecx
 486 015f 8974240C 		movl	%esi, 12(%rsp)
 489              		.loc 5 29 0
 490 0163 498D04C4 		leaq	(%r12,%rax,8), %rax
  19:array.cpp     ****   }
 496              		.loc 5 19 0
 497 0167 488B30   		movq	(%rax), %rsi
 646:/usr/include/c++/4.8/bits/stl_vector.h **** 
 506              		.loc 3 646 0
 507 016a 488B5008 		movq	8(%rax), %rdx
 508 016e 4829F2   		subq	%rsi, %rdx
 509 0171 48C1FA02 		sarq	$2, %rdx
 512              		.loc 5 29 0
 513 0175 4885D2   		testq	%rdx, %rdx
 514 0178 741C     		je	.L32
 516 017a 31C0     		xorl	%eax, %eax
  30:array.cpp     ****         if (v[a][k] == b) {
 517              		.loc 5 30 0
 518 017c 3B0E     		cmpl	(%rsi), %ecx
 519 017e 750D     		jne	.L35
 520 0180 EB4E     		jmp	.L33
 522              		.p2align 4,,10
 523 0182 660F1F44 		.p2align 3
 525 0188 3B0C86   		cmpl	(%rsi,%rax,4), %ecx
 526 018b 7443     		je	.L33
  29:array.cpp     ****         if (v[a][k] == b) {
 529              		.loc 5 29 0
 530 018d 4883C001 		addq	$1, %rax
 531              	.LVL53:
 532 0191 4839C2   		cmpq	%rax, %rdx
 533 0194 75F2     		jne	.L36
 534              	.LVL54:
 535              	.L32:
 536              	.LBE382:
 537              	.LBE385:
  26:array.cpp     ****       a = rand() % n;
 538              		.loc 5 26 0
 539 0196 83EB01   		subl	$1, %ebx
 540              	.LVL55:
 541 0199 0F8579FF 		jne	.L39
 541      FFFF
 542              	.LVL56:
 543              	.L50:
 544              	.LBE388:
  25:array.cpp     ****     for (int i = 0;i < q;i++) {
 545              		.loc 5 25 0
 546 019f 4183EE01 		subl	$1, %r14d
 547              	.LVL57:
 548 01a3 0F8567FF 		jne	.L31
 548      FFFF
 549              	.LBE392:
  31:array.cpp     ****           sum++;
  32:array.cpp     ****           break;
  33:array.cpp     ****         }
  34:array.cpp     **** 
  35:array.cpp     ****       }
  36:array.cpp     ****     }
  37:array.cpp     **** 
  38:array.cpp     ****   cout << sum << endl;
 550              		.loc 5 38 0
 551 01a9 4489EE   		movl	%r13d, %esi
 552 01ac BF000000 		movl	$_ZSt4cout, %edi
 552      00
 553 01b1 E8000000 		call	_ZNSolsEi
 553      00
 554              	.LVL58:
 555              	.LBB393:
 556              	.LBB394:
 557              		.loc 6 113 0
 558 01b6 4889C7   		movq	%rax, %rdi
 559 01b9 E8000000 		call	_ZSt4endlIcSt11char_traitsIcEERSt13basic_ostreamIT_T0_ES6_
 559      00
 560              	.LVL59:
 561              	.LBE394:
 562              	.LBE393:
 563              	.LBE397:
  39:array.cpp     **** }
 564              		.loc 5 39 0
 565 01be 4883C418 		addq	$24, %rsp
 566              		.cfi_remember_state
 567              		.cfi_def_cfa_offset 56
 568 01c2 31C0     		xorl	%eax, %eax
 569 01c4 5B       		popq	%rbx
 570              		.cfi_def_cfa_offset 48
 571 01c5 5D       		popq	%rbp
 572              		.cfi_def_cfa_offset 40
 573 01c6 415C     		popq	%r12
 574              		.cfi_def_cfa_offset 32
 575              	.LVL60:
 576 01c8 415D     		popq	%r13
 577              		.cfi_def_cfa_offset 24
 578              	.LVL61:
 579 01ca 415E     		popq	%r14
 580              		.cfi_def_cfa_offset 16
 581              	.LVL62:
 582 01cc 415F     		popq	%r15
 583              		.cfi_def_cfa_offset 8
 584 01ce C3       		ret
 585              	.LVL63:
 586 01cf 90       		.p2align 4,,10
 587              		.p2align 3
 588              	.L33:
 589              		.cfi_restore_state
 590              	.LBB398:
 591              	.LBB395:
 592              	.LBB389:
 593              	.LBB386:
 594              	.LBB383:
  31:array.cpp     ****           sum++;
 595              		.loc 5 31 0
 596 01d0 4183C501 		addl	$1, %r13d
 597              	.LVL64:
 598              	.LBE383:
 599              	.LBE386:
  26:array.cpp     ****       a = rand() % n;
 600              		.loc 5 26 0
 601 01d4 83EB01   		subl	$1, %ebx
 602              	.LVL65:
 603 01d7 0F853BFF 		jne	.L39
 603      FFFF
 604 01dd EBC0     		jmp	.L50
 605              	.LBE389:
 606              	.LBE395:
 607              	.LBE398:
 608              		.cfi_endproc
 609              	.LFE1578:
 610              		.size	main, .-main
 611 01df 90       		.p2align 4,,15
 612              		.type	_GLOBAL__sub_I_main, @function
 613              	_GLOBAL__sub_I_main:
 614              	.LFB1812:
 615              		.loc 5 39 0
 616              		.cfi_startproc
 617              	.LVL66:
 618 01e0 4883EC08 		subq	$8, %rsp
 619              		.cfi_def_cfa_offset 16
 620              	.LBB401:
 621              	.LBB402:
 622              		.file 7 "/usr/include/c++/4.8/iostream"
   1:/usr/include/c++/4.8/iostream **** // Standard iostream objects -*- C++ -*-
   2:/usr/include/c++/4.8/iostream **** 
   3:/usr/include/c++/4.8/iostream **** // Copyright (C) 1997-2013 Free Software Foundation, Inc.
   4:/usr/include/c++/4.8/iostream **** //
   5:/usr/include/c++/4.8/iostream **** // This file is part of the GNU ISO C++ Library.  This library is free
   6:/usr/include/c++/4.8/iostream **** // software; you can redistribute it and/or modify it under the
   7:/usr/include/c++/4.8/iostream **** // terms of the GNU General Public License as published by the
   8:/usr/include/c++/4.8/iostream **** // Free Software Foundation; either version 3, or (at your option)
   9:/usr/include/c++/4.8/iostream **** // any later version.
  10:/usr/include/c++/4.8/iostream **** 
  11:/usr/include/c++/4.8/iostream **** // This library is distributed in the hope that it will be useful,
  12:/usr/include/c++/4.8/iostream **** // but WITHOUT ANY WARRANTY; without even the implied warranty of
  13:/usr/include/c++/4.8/iostream **** // MERCHANTABILITY or FITNESS FOR A PARTICULAR PURPOSE.  See the
  14:/usr/include/c++/4.8/iostream **** // GNU General Public License for more details.
  15:/usr/include/c++/4.8/iostream **** 
  16:/usr/include/c++/4.8/iostream **** // Under Section 7 of GPL version 3, you are granted additional
  17:/usr/include/c++/4.8/iostream **** // permissions described in the GCC Runtime Library Exception, version
  18:/usr/include/c++/4.8/iostream **** // 3.1, as published by the Free Software Foundation.
  19:/usr/include/c++/4.8/iostream **** 
  20:/usr/include/c++/4.8/iostream **** // You should have received a copy of the GNU General Public License and
  21:/usr/include/c++/4.8/iostream **** // a copy of the GCC Runtime Library Exception along with this program;
  22:/usr/include/c++/4.8/iostream **** // see the files COPYING3 and COPYING.RUNTIME respectively.  If not, see
  23:/usr/include/c++/4.8/iostream **** // <http://www.gnu.org/licenses/>.
  24:/usr/include/c++/4.8/iostream **** 
  25:/usr/include/c++/4.8/iostream **** /** @file include/iostream
  26:/usr/include/c++/4.8/iostream ****  *  This is a Standard C++ Library header.
  27:/usr/include/c++/4.8/iostream ****  */
  28:/usr/include/c++/4.8/iostream **** 
  29:/usr/include/c++/4.8/iostream **** //
  30:/usr/include/c++/4.8/iostream **** // ISO C++ 14882: 27.3  Standard iostream objects
  31:/usr/include/c++/4.8/iostream **** //
  32:/usr/include/c++/4.8/iostream **** 
  33:/usr/include/c++/4.8/iostream **** #ifndef _GLIBCXX_IOSTREAM
  34:/usr/include/c++/4.8/iostream **** #define _GLIBCXX_IOSTREAM 1
  35:/usr/include/c++/4.8/iostream **** 
  36:/usr/include/c++/4.8/iostream **** #pragma GCC system_header
  37:/usr/include/c++/4.8/iostream **** 
  38:/usr/include/c++/4.8/iostream **** #include <bits/c++config.h>
  39:/usr/include/c++/4.8/iostream **** #include <ostream>
  40:/usr/include/c++/4.8/iostream **** #include <istream>
  41:/usr/include/c++/4.8/iostream **** 
  42:/usr/include/c++/4.8/iostream **** namespace std _GLIBCXX_VISIBILITY(default)
  43:/usr/include/c++/4.8/iostream **** {
  44:/usr/include/c++/4.8/iostream **** _GLIBCXX_BEGIN_NAMESPACE_VERSION
  45:/usr/include/c++/4.8/iostream **** 
  46:/usr/include/c++/4.8/iostream ****   /**
  47:/usr/include/c++/4.8/iostream ****    *  @name Standard Stream Objects
  48:/usr/include/c++/4.8/iostream ****    *
  49:/usr/include/c++/4.8/iostream ****    *  The &lt;iostream&gt; header declares the eight <em>standard stream
  50:/usr/include/c++/4.8/iostream ****    *  objects</em>.  For other declarations, see
  51:/usr/include/c++/4.8/iostream ****    *  http://gcc.gnu.org/onlinedocs/libstdc++/manual/io.html
  52:/usr/include/c++/4.8/iostream ****    *  and the @link iosfwd I/O forward declarations @endlink
  53:/usr/include/c++/4.8/iostream ****    *
  54:/usr/include/c++/4.8/iostream ****    *  They are required by default to cooperate with the global C
  55:/usr/include/c++/4.8/iostream ****    *  library's @c FILE streams, and to be available during program
  56:/usr/include/c++/4.8/iostream ****    *  startup and termination. For more information, see the section of the
  57:/usr/include/c++/4.8/iostream ****    *  manual linked to above.
  58:/usr/include/c++/4.8/iostream ****   */
  59:/usr/include/c++/4.8/iostream ****   //@{
  60:/usr/include/c++/4.8/iostream ****   extern istream cin;		/// Linked to standard input
  61:/usr/include/c++/4.8/iostream ****   extern ostream cout;		/// Linked to standard output
  62:/usr/include/c++/4.8/iostream ****   extern ostream cerr;		/// Linked to standard error (unbuffered)
  63:/usr/include/c++/4.8/iostream ****   extern ostream clog;		/// Linked to standard error (buffered)
  64:/usr/include/c++/4.8/iostream **** 
  65:/usr/include/c++/4.8/iostream **** #ifdef _GLIBCXX_USE_WCHAR_T
  66:/usr/include/c++/4.8/iostream ****   extern wistream wcin;		/// Linked to standard input
  67:/usr/include/c++/4.8/iostream ****   extern wostream wcout;	/// Linked to standard output
  68:/usr/include/c++/4.8/iostream ****   extern wostream wcerr;	/// Linked to standard error (unbuffered)
  69:/usr/include/c++/4.8/iostream ****   extern wostream wclog;	/// Linked to standard error (buffered)
  70:/usr/include/c++/4.8/iostream **** #endif
  71:/usr/include/c++/4.8/iostream ****   //@}
  72:/usr/include/c++/4.8/iostream **** 
  73:/usr/include/c++/4.8/iostream ****   // For construction of filebuffers for cout, cin, cerr, clog et. al.
  74:/usr/include/c++/4.8/iostream ****   static ios_base::Init __ioinit;
 623              		.loc 7 74 0
 624 01e4 BF000000 		movl	$_ZStL8__ioinit, %edi
 624      00
 625 01e9 E8000000 		call	_ZNSt8ios_base4InitC1Ev
 625      00
 626              	.LVL67:
 627 01ee BA000000 		movl	$__dso_handle, %edx
 627      00
 628 01f3 BE000000 		movl	$_ZStL8__ioinit, %esi
 628      00
 629 01f8 BF000000 		movl	$_ZNSt8ios_base4InitD1Ev, %edi
 629      00
 630              	.LBE402:
 631              	.LBE401:
 632              		.loc 5 39 0
 633 01fd 4883C408 		addq	$8, %rsp
 634              		.cfi_def_cfa_offset 8
 635              	.LBB404:
 636              	.LBB403:
 637              		.loc 7 74 0
 638 0201 E9000000 		jmp	__cxa_atexit
 638      00
 639              	.LVL68:
 640              	.LBE403:
 641              	.LBE404:
 642              		.cfi_endproc
 643              	.LFE1812:
 644              		.size	_GLOBAL__sub_I_main, .-_GLOBAL__sub_I_main
 645              		.section	.init_array,"aw"
 646              		.align 8
 647 0000 00000000 		.quad	_GLOBAL__sub_I_main
 647      00000000 
 648              		.local	_ZStL8__ioinit
 649              		.comm	_ZStL8__ioinit,1,1
 650              		.text
 651              	.Letext0:
 652              		.file 8 "/usr/include/libio.h"
 653              		.file 9 "/usr/include/stdio.h"
 654              		.file 10 "<built-in>"
 655              		.file 11 "/usr/lib64/gcc/x86_64-suse-linux/4.8/include/stddef.h"
 656              		.file 12 "/usr/include/wchar.h"
 657              		.file 13 "/usr/include/c++/4.8/cwchar"
 658              		.file 14 "/usr/include/c++/4.8/bits/exception_ptr.h"
 659              		.file 15 "/usr/include/c++/4.8/x86_64-suse-linux/bits/c++config.h"
 660              		.file 16 "/usr/include/c++/4.8/type_traits"
 661              		.file 17 "/usr/include/c++/4.8/bits/char_traits.h"
 662              		.file 18 "/usr/include/c++/4.8/cstdint"
 663              		.file 19 "/usr/include/c++/4.8/clocale"
 664              		.file 20 "/usr/include/c++/4.8/cstdlib"
 665              		.file 21 "/usr/include/c++/4.8/cstdio"
 666              		.file 22 "/usr/include/c++/4.8/bits/ios_base.h"
 667              		.file 23 "/usr/include/c++/4.8/cwctype"
 668              		.file 24 "/usr/include/c++/4.8/bits/ostream.tcc"
 669              		.file 25 "/usr/include/c++/4.8/bits/stl_construct.h"
 670              		.file 26 "/usr/include/c++/4.8/bits/stl_uninitialized.h"
 671              		.file 27 "/usr/include/c++/4.8/bits/allocator.h"
 672              		.file 28 "/usr/include/c++/4.8/bits/ptr_traits.h"
 673              		.file 29 "/usr/include/c++/4.8/bits/alloc_traits.h"
 674              		.file 30 "/usr/include/c++/4.8/ext/alloc_traits.h"
 675              		.file 31 "/usr/include/c++/4.8/bits/stl_iterator_base_types.h"
 676              		.file 32 "/usr/include/c++/4.8/bits/stl_iterator.h"
 677              		.file 33 "/usr/include/c++/4.8/bits/basic_ios.h"
 678              		.file 34 "/usr/include/c++/4.8/bits/move.h"
 679              		.file 35 "/usr/include/c++/4.8/iosfwd"
 680              		.file 36 "/usr/include/time.h"
 681              		.file 37 "/usr/include/c++/4.8/ext/numeric_traits.h"
 682              		.file 38 "/usr/include/c++/4.8/debug/debug.h"
 683              		.file 39 "/usr/include/stdint.h"
 684              		.file 40 "/usr/include/locale.h"
 685              		.file 41 "/usr/include/bits/types.h"
 686              		.file 42 "/usr/include/c++/4.8/x86_64-suse-linux/bits/atomic_word.h"
 687              		.file 43 "/usr/include/stdlib.h"
 688              		.file 44 "/usr/include/bits/stdlib-float.h"
 689              		.file 45 "/usr/include/bits/stdlib-bsearch.h"
 690              		.file 46 "/usr/include/_G_config.h"
 691              		.file 47 "/usr/include/bits/stdio.h"
 692              		.file 48 "/usr/include/wctype.h"
 693              		.file 49 "/usr/include/c++/4.8/new"
 694              		.file 50 "/usr/include/c++/4.8/bits/stl_pair.h"
 14747              		.section	.note.GNU-stack,"",@progbits
